	.file	"main.cpp"
	.text
	.section	.text._ZNKSt5ctypeIcE8do_widenEc,"axG",@progbits,_ZNKSt5ctypeIcE8do_widenEc,comdat
	.align 2
	.p2align 4,,15
	.weak	_ZNKSt5ctypeIcE8do_widenEc
	.type	_ZNKSt5ctypeIcE8do_widenEc, @function
_ZNKSt5ctypeIcE8do_widenEc:
.LFB1610:
	.cfi_startproc
	movl	%esi, %eax
	ret
	.cfi_endproc
.LFE1610:
	.size	_ZNKSt5ctypeIcE8do_widenEc, .-_ZNKSt5ctypeIcE8do_widenEc
	.section	.text._ZN7cvflann7anyimpl14big_any_policyINS0_9empty_anyEED2Ev,"axG",@progbits,_ZN7cvflann7anyimpl14big_any_policyINS0_9empty_anyEED5Ev,comdat
	.align 2
	.p2align 4,,15
	.weak	_ZN7cvflann7anyimpl14big_any_policyINS0_9empty_anyEED2Ev
	.type	_ZN7cvflann7anyimpl14big_any_policyINS0_9empty_anyEED2Ev, @function
_ZN7cvflann7anyimpl14big_any_policyINS0_9empty_anyEED2Ev:
.LFB10556:
	.cfi_startproc
	ret
	.cfi_endproc
.LFE10556:
	.size	_ZN7cvflann7anyimpl14big_any_policyINS0_9empty_anyEED2Ev, .-_ZN7cvflann7anyimpl14big_any_policyINS0_9empty_anyEED2Ev
	.weak	_ZN7cvflann7anyimpl14big_any_policyINS0_9empty_anyEED1Ev
	.set	_ZN7cvflann7anyimpl14big_any_policyINS0_9empty_anyEED1Ev,_ZN7cvflann7anyimpl14big_any_policyINS0_9empty_anyEED2Ev
	.section	.text._ZN7cvflann7anyimpl16small_any_policyIPKcED2Ev,"axG",@progbits,_ZN7cvflann7anyimpl16small_any_policyIPKcED5Ev,comdat
	.align 2
	.p2align 4,,15
	.weak	_ZN7cvflann7anyimpl16small_any_policyIPKcED2Ev
	.type	_ZN7cvflann7anyimpl16small_any_policyIPKcED2Ev, @function
_ZN7cvflann7anyimpl16small_any_policyIPKcED2Ev:
.LFB11492:
	.cfi_startproc
	ret
	.cfi_endproc
.LFE11492:
	.size	_ZN7cvflann7anyimpl16small_any_policyIPKcED2Ev, .-_ZN7cvflann7anyimpl16small_any_policyIPKcED2Ev
	.weak	_ZN7cvflann7anyimpl16small_any_policyIPKcED1Ev
	.set	_ZN7cvflann7anyimpl16small_any_policyIPKcED1Ev,_ZN7cvflann7anyimpl16small_any_policyIPKcED2Ev
	.section	.text._ZN7cvflann7anyimpl16small_any_policyIiED2Ev,"axG",@progbits,_ZN7cvflann7anyimpl16small_any_policyIiED5Ev,comdat
	.align 2
	.p2align 4,,15
	.weak	_ZN7cvflann7anyimpl16small_any_policyIiED2Ev
	.type	_ZN7cvflann7anyimpl16small_any_policyIiED2Ev, @function
_ZN7cvflann7anyimpl16small_any_policyIiED2Ev:
.LFB12189:
	.cfi_startproc
	ret
	.cfi_endproc
.LFE12189:
	.size	_ZN7cvflann7anyimpl16small_any_policyIiED2Ev, .-_ZN7cvflann7anyimpl16small_any_policyIiED2Ev
	.weak	_ZN7cvflann7anyimpl16small_any_policyIiED1Ev
	.set	_ZN7cvflann7anyimpl16small_any_policyIiED1Ev,_ZN7cvflann7anyimpl16small_any_policyIiED2Ev
	.section	.text._ZN7cvflann7anyimpl16small_any_policyIfED2Ev,"axG",@progbits,_ZN7cvflann7anyimpl16small_any_policyIfED5Ev,comdat
	.align 2
	.p2align 4,,15
	.weak	_ZN7cvflann7anyimpl16small_any_policyIfED2Ev
	.type	_ZN7cvflann7anyimpl16small_any_policyIfED2Ev, @function
_ZN7cvflann7anyimpl16small_any_policyIfED2Ev:
.LFB12204:
	.cfi_startproc
	ret
	.cfi_endproc
.LFE12204:
	.size	_ZN7cvflann7anyimpl16small_any_policyIfED2Ev, .-_ZN7cvflann7anyimpl16small_any_policyIfED2Ev
	.weak	_ZN7cvflann7anyimpl16small_any_policyIfED1Ev
	.set	_ZN7cvflann7anyimpl16small_any_policyIfED1Ev,_ZN7cvflann7anyimpl16small_any_policyIfED2Ev
	.section	.text._ZN7cvflann7anyimpl16small_any_policyIbED2Ev,"axG",@progbits,_ZN7cvflann7anyimpl16small_any_policyIbED5Ev,comdat
	.align 2
	.p2align 4,,15
	.weak	_ZN7cvflann7anyimpl16small_any_policyIbED2Ev
	.type	_ZN7cvflann7anyimpl16small_any_policyIbED2Ev, @function
_ZN7cvflann7anyimpl16small_any_policyIbED2Ev:
.LFB12219:
	.cfi_startproc
	ret
	.cfi_endproc
.LFE12219:
	.size	_ZN7cvflann7anyimpl16small_any_policyIbED2Ev, .-_ZN7cvflann7anyimpl16small_any_policyIbED2Ev
	.weak	_ZN7cvflann7anyimpl16small_any_policyIbED1Ev
	.set	_ZN7cvflann7anyimpl16small_any_policyIbED1Ev,_ZN7cvflann7anyimpl16small_any_policyIbED2Ev
	.section	.text._ZN7cvflann7anyimpl14big_any_policyINS_17flann_algorithm_tEED2Ev,"axG",@progbits,_ZN7cvflann7anyimpl14big_any_policyINS_17flann_algorithm_tEED5Ev,comdat
	.align 2
	.p2align 4,,15
	.weak	_ZN7cvflann7anyimpl14big_any_policyINS_17flann_algorithm_tEED2Ev
	.type	_ZN7cvflann7anyimpl14big_any_policyINS_17flann_algorithm_tEED2Ev, @function
_ZN7cvflann7anyimpl14big_any_policyINS_17flann_algorithm_tEED2Ev:
.LFB12259:
	.cfi_startproc
	ret
	.cfi_endproc
.LFE12259:
	.size	_ZN7cvflann7anyimpl14big_any_policyINS_17flann_algorithm_tEED2Ev, .-_ZN7cvflann7anyimpl14big_any_policyINS_17flann_algorithm_tEED2Ev
	.weak	_ZN7cvflann7anyimpl14big_any_policyINS_17flann_algorithm_tEED1Ev
	.set	_ZN7cvflann7anyimpl14big_any_policyINS_17flann_algorithm_tEED1Ev,_ZN7cvflann7anyimpl14big_any_policyINS_17flann_algorithm_tEED2Ev
	.section	.text._ZN7cvflann7anyimpl14big_any_policyINS_20flann_centers_init_tEED2Ev,"axG",@progbits,_ZN7cvflann7anyimpl14big_any_policyINS_20flann_centers_init_tEED5Ev,comdat
	.align 2
	.p2align 4,,15
	.weak	_ZN7cvflann7anyimpl14big_any_policyINS_20flann_centers_init_tEED2Ev
	.type	_ZN7cvflann7anyimpl14big_any_policyINS_20flann_centers_init_tEED2Ev, @function
_ZN7cvflann7anyimpl14big_any_policyINS_20flann_centers_init_tEED2Ev:
.LFB12274:
	.cfi_startproc
	ret
	.cfi_endproc
.LFE12274:
	.size	_ZN7cvflann7anyimpl14big_any_policyINS_20flann_centers_init_tEED2Ev, .-_ZN7cvflann7anyimpl14big_any_policyINS_20flann_centers_init_tEED2Ev
	.weak	_ZN7cvflann7anyimpl14big_any_policyINS_20flann_centers_init_tEED1Ev
	.set	_ZN7cvflann7anyimpl14big_any_policyINS_20flann_centers_init_tEED1Ev,_ZN7cvflann7anyimpl14big_any_policyINS_20flann_centers_init_tEED2Ev
	.section	.text._ZN7cvflann7anyimpl16small_any_policyIjED2Ev,"axG",@progbits,_ZN7cvflann7anyimpl16small_any_policyIjED5Ev,comdat
	.align 2
	.p2align 4,,15
	.weak	_ZN7cvflann7anyimpl16small_any_policyIjED2Ev
	.type	_ZN7cvflann7anyimpl16small_any_policyIjED2Ev, @function
_ZN7cvflann7anyimpl16small_any_policyIjED2Ev:
.LFB12350:
	.cfi_startproc
	ret
	.cfi_endproc
.LFE12350:
	.size	_ZN7cvflann7anyimpl16small_any_policyIjED2Ev, .-_ZN7cvflann7anyimpl16small_any_policyIjED2Ev
	.weak	_ZN7cvflann7anyimpl16small_any_policyIjED1Ev
	.set	_ZN7cvflann7anyimpl16small_any_policyIjED1Ev,_ZN7cvflann7anyimpl16small_any_policyIjED2Ev
	.section	.text._ZN7cvflann7anyimpl14big_any_policyIN2cv6StringEED2Ev,"axG",@progbits,_ZN7cvflann7anyimpl14big_any_policyIN2cv6StringEED5Ev,comdat
	.align 2
	.p2align 4,,15
	.weak	_ZN7cvflann7anyimpl14big_any_policyIN2cv6StringEED2Ev
	.type	_ZN7cvflann7anyimpl14big_any_policyIN2cv6StringEED2Ev, @function
_ZN7cvflann7anyimpl14big_any_policyIN2cv6StringEED2Ev:
.LFB12365:
	.cfi_startproc
	ret
	.cfi_endproc
.LFE12365:
	.size	_ZN7cvflann7anyimpl14big_any_policyIN2cv6StringEED2Ev, .-_ZN7cvflann7anyimpl14big_any_policyIN2cv6StringEED2Ev
	.weak	_ZN7cvflann7anyimpl14big_any_policyIN2cv6StringEED1Ev
	.set	_ZN7cvflann7anyimpl14big_any_policyIN2cv6StringEED1Ev,_ZN7cvflann7anyimpl14big_any_policyIN2cv6StringEED2Ev
	.section	.text._ZN7cvflann7anyimpl16small_any_policyIjE13static_deleteEPPv,"axG",@progbits,_ZN7cvflann7anyimpl16small_any_policyIjE13static_deleteEPPv,comdat
	.align 2
	.p2align 4,,15
	.weak	_ZN7cvflann7anyimpl16small_any_policyIjE13static_deleteEPPv
	.type	_ZN7cvflann7anyimpl16small_any_policyIjE13static_deleteEPPv, @function
_ZN7cvflann7anyimpl16small_any_policyIjE13static_deleteEPPv:
.LFB13874:
	.cfi_startproc
	ret
	.cfi_endproc
.LFE13874:
	.size	_ZN7cvflann7anyimpl16small_any_policyIjE13static_deleteEPPv, .-_ZN7cvflann7anyimpl16small_any_policyIjE13static_deleteEPPv
	.section	.text._ZN7cvflann7anyimpl16small_any_policyIjE15copy_from_valueEPKvPPv,"axG",@progbits,_ZN7cvflann7anyimpl16small_any_policyIjE15copy_from_valueEPKvPPv,comdat
	.align 2
	.p2align 4,,15
	.weak	_ZN7cvflann7anyimpl16small_any_policyIjE15copy_from_valueEPKvPPv
	.type	_ZN7cvflann7anyimpl16small_any_policyIjE15copy_from_valueEPKvPPv, @function
_ZN7cvflann7anyimpl16small_any_policyIjE15copy_from_valueEPKvPPv:
.LFB13875:
	.cfi_startproc
	movl	(%rsi), %eax
	movl	%eax, (%rdx)
	ret
	.cfi_endproc
.LFE13875:
	.size	_ZN7cvflann7anyimpl16small_any_policyIjE15copy_from_valueEPKvPPv, .-_ZN7cvflann7anyimpl16small_any_policyIjE15copy_from_valueEPKvPPv
	.section	.text._ZN7cvflann7anyimpl16small_any_policyIjE5cloneEPKPvPS3_,"axG",@progbits,_ZN7cvflann7anyimpl16small_any_policyIjE5cloneEPKPvPS3_,comdat
	.align 2
	.p2align 4,,15
	.weak	_ZN7cvflann7anyimpl16small_any_policyIjE5cloneEPKPvPS3_
	.type	_ZN7cvflann7anyimpl16small_any_policyIjE5cloneEPKPvPS3_, @function
_ZN7cvflann7anyimpl16small_any_policyIjE5cloneEPKPvPS3_:
.LFB13876:
	.cfi_startproc
	movq	(%rsi), %rax
	movq	%rax, (%rdx)
	ret
	.cfi_endproc
.LFE13876:
	.size	_ZN7cvflann7anyimpl16small_any_policyIjE5cloneEPKPvPS3_, .-_ZN7cvflann7anyimpl16small_any_policyIjE5cloneEPKPvPS3_
	.section	.text._ZN7cvflann7anyimpl16small_any_policyIjE4moveEPKPvPS3_,"axG",@progbits,_ZN7cvflann7anyimpl16small_any_policyIjE4moveEPKPvPS3_,comdat
	.align 2
	.p2align 4,,15
	.weak	_ZN7cvflann7anyimpl16small_any_policyIjE4moveEPKPvPS3_
	.type	_ZN7cvflann7anyimpl16small_any_policyIjE4moveEPKPvPS3_, @function
_ZN7cvflann7anyimpl16small_any_policyIjE4moveEPKPvPS3_:
.LFB13877:
	.cfi_startproc
	movq	(%rsi), %rax
	movq	%rax, (%rdx)
	ret
	.cfi_endproc
.LFE13877:
	.size	_ZN7cvflann7anyimpl16small_any_policyIjE4moveEPKPvPS3_, .-_ZN7cvflann7anyimpl16small_any_policyIjE4moveEPKPvPS3_
	.section	.text._ZN7cvflann7anyimpl16small_any_policyIjE9get_valueEPPv,"axG",@progbits,_ZN7cvflann7anyimpl16small_any_policyIjE9get_valueEPPv,comdat
	.align 2
	.p2align 4,,15
	.weak	_ZN7cvflann7anyimpl16small_any_policyIjE9get_valueEPPv
	.type	_ZN7cvflann7anyimpl16small_any_policyIjE9get_valueEPPv, @function
_ZN7cvflann7anyimpl16small_any_policyIjE9get_valueEPPv:
.LFB13878:
	.cfi_startproc
	movq	%rsi, %rax
	ret
	.cfi_endproc
.LFE13878:
	.size	_ZN7cvflann7anyimpl16small_any_policyIjE9get_valueEPPv, .-_ZN7cvflann7anyimpl16small_any_policyIjE9get_valueEPPv
	.section	.text._ZN7cvflann7anyimpl16small_any_policyIjE9get_valueEPKPv,"axG",@progbits,_ZN7cvflann7anyimpl16small_any_policyIjE9get_valueEPKPv,comdat
	.align 2
	.p2align 4,,15
	.weak	_ZN7cvflann7anyimpl16small_any_policyIjE9get_valueEPKPv
	.type	_ZN7cvflann7anyimpl16small_any_policyIjE9get_valueEPKPv, @function
_ZN7cvflann7anyimpl16small_any_policyIjE9get_valueEPKPv:
.LFB13879:
	.cfi_startproc
	movq	%rsi, %rax
	ret
	.cfi_endproc
.LFE13879:
	.size	_ZN7cvflann7anyimpl16small_any_policyIjE9get_valueEPKPv, .-_ZN7cvflann7anyimpl16small_any_policyIjE9get_valueEPKPv
	.section	.text._ZN7cvflann7anyimpl21typed_base_any_policyIjE8get_sizeEv,"axG",@progbits,_ZN7cvflann7anyimpl21typed_base_any_policyIjE8get_sizeEv,comdat
	.align 2
	.p2align 4,,15
	.weak	_ZN7cvflann7anyimpl21typed_base_any_policyIjE8get_sizeEv
	.type	_ZN7cvflann7anyimpl21typed_base_any_policyIjE8get_sizeEv, @function
_ZN7cvflann7anyimpl21typed_base_any_policyIjE8get_sizeEv:
.LFB13880:
	.cfi_startproc
	movl	$4, %eax
	ret
	.cfi_endproc
.LFE13880:
	.size	_ZN7cvflann7anyimpl21typed_base_any_policyIjE8get_sizeEv, .-_ZN7cvflann7anyimpl21typed_base_any_policyIjE8get_sizeEv
	.section	.text._ZN7cvflann7anyimpl21typed_base_any_policyIjE4typeEv,"axG",@progbits,_ZN7cvflann7anyimpl21typed_base_any_policyIjE4typeEv,comdat
	.align 2
	.p2align 4,,15
	.weak	_ZN7cvflann7anyimpl21typed_base_any_policyIjE4typeEv
	.type	_ZN7cvflann7anyimpl21typed_base_any_policyIjE4typeEv, @function
_ZN7cvflann7anyimpl21typed_base_any_policyIjE4typeEv:
.LFB13881:
	.cfi_startproc
	leaq	_ZTIj(%rip), %rax
	ret
	.cfi_endproc
.LFE13881:
	.size	_ZN7cvflann7anyimpl21typed_base_any_policyIjE4typeEv, .-_ZN7cvflann7anyimpl21typed_base_any_policyIjE4typeEv
	.section	.text._ZN7cvflann7anyimpl16small_any_policyIbE13static_deleteEPPv,"axG",@progbits,_ZN7cvflann7anyimpl16small_any_policyIbE13static_deleteEPPv,comdat
	.align 2
	.p2align 4,,15
	.weak	_ZN7cvflann7anyimpl16small_any_policyIbE13static_deleteEPPv
	.type	_ZN7cvflann7anyimpl16small_any_policyIbE13static_deleteEPPv, @function
_ZN7cvflann7anyimpl16small_any_policyIbE13static_deleteEPPv:
.LFB13883:
	.cfi_startproc
	ret
	.cfi_endproc
.LFE13883:
	.size	_ZN7cvflann7anyimpl16small_any_policyIbE13static_deleteEPPv, .-_ZN7cvflann7anyimpl16small_any_policyIbE13static_deleteEPPv
	.section	.text._ZN7cvflann7anyimpl16small_any_policyIbE15copy_from_valueEPKvPPv,"axG",@progbits,_ZN7cvflann7anyimpl16small_any_policyIbE15copy_from_valueEPKvPPv,comdat
	.align 2
	.p2align 4,,15
	.weak	_ZN7cvflann7anyimpl16small_any_policyIbE15copy_from_valueEPKvPPv
	.type	_ZN7cvflann7anyimpl16small_any_policyIbE15copy_from_valueEPKvPPv, @function
_ZN7cvflann7anyimpl16small_any_policyIbE15copy_from_valueEPKvPPv:
.LFB13884:
	.cfi_startproc
	movzbl	(%rsi), %eax
	movb	%al, (%rdx)
	ret
	.cfi_endproc
.LFE13884:
	.size	_ZN7cvflann7anyimpl16small_any_policyIbE15copy_from_valueEPKvPPv, .-_ZN7cvflann7anyimpl16small_any_policyIbE15copy_from_valueEPKvPPv
	.section	.text._ZN7cvflann7anyimpl16small_any_policyIbE5cloneEPKPvPS3_,"axG",@progbits,_ZN7cvflann7anyimpl16small_any_policyIbE5cloneEPKPvPS3_,comdat
	.align 2
	.p2align 4,,15
	.weak	_ZN7cvflann7anyimpl16small_any_policyIbE5cloneEPKPvPS3_
	.type	_ZN7cvflann7anyimpl16small_any_policyIbE5cloneEPKPvPS3_, @function
_ZN7cvflann7anyimpl16small_any_policyIbE5cloneEPKPvPS3_:
.LFB13885:
	.cfi_startproc
	movq	(%rsi), %rax
	movq	%rax, (%rdx)
	ret
	.cfi_endproc
.LFE13885:
	.size	_ZN7cvflann7anyimpl16small_any_policyIbE5cloneEPKPvPS3_, .-_ZN7cvflann7anyimpl16small_any_policyIbE5cloneEPKPvPS3_
	.section	.text._ZN7cvflann7anyimpl16small_any_policyIbE4moveEPKPvPS3_,"axG",@progbits,_ZN7cvflann7anyimpl16small_any_policyIbE4moveEPKPvPS3_,comdat
	.align 2
	.p2align 4,,15
	.weak	_ZN7cvflann7anyimpl16small_any_policyIbE4moveEPKPvPS3_
	.type	_ZN7cvflann7anyimpl16small_any_policyIbE4moveEPKPvPS3_, @function
_ZN7cvflann7anyimpl16small_any_policyIbE4moveEPKPvPS3_:
.LFB13886:
	.cfi_startproc
	movq	(%rsi), %rax
	movq	%rax, (%rdx)
	ret
	.cfi_endproc
.LFE13886:
	.size	_ZN7cvflann7anyimpl16small_any_policyIbE4moveEPKPvPS3_, .-_ZN7cvflann7anyimpl16small_any_policyIbE4moveEPKPvPS3_
	.section	.text._ZN7cvflann7anyimpl16small_any_policyIbE9get_valueEPPv,"axG",@progbits,_ZN7cvflann7anyimpl16small_any_policyIbE9get_valueEPPv,comdat
	.align 2
	.p2align 4,,15
	.weak	_ZN7cvflann7anyimpl16small_any_policyIbE9get_valueEPPv
	.type	_ZN7cvflann7anyimpl16small_any_policyIbE9get_valueEPPv, @function
_ZN7cvflann7anyimpl16small_any_policyIbE9get_valueEPPv:
.LFB13887:
	.cfi_startproc
	movq	%rsi, %rax
	ret
	.cfi_endproc
.LFE13887:
	.size	_ZN7cvflann7anyimpl16small_any_policyIbE9get_valueEPPv, .-_ZN7cvflann7anyimpl16small_any_policyIbE9get_valueEPPv
	.section	.text._ZN7cvflann7anyimpl16small_any_policyIbE9get_valueEPKPv,"axG",@progbits,_ZN7cvflann7anyimpl16small_any_policyIbE9get_valueEPKPv,comdat
	.align 2
	.p2align 4,,15
	.weak	_ZN7cvflann7anyimpl16small_any_policyIbE9get_valueEPKPv
	.type	_ZN7cvflann7anyimpl16small_any_policyIbE9get_valueEPKPv, @function
_ZN7cvflann7anyimpl16small_any_policyIbE9get_valueEPKPv:
.LFB13888:
	.cfi_startproc
	movq	%rsi, %rax
	ret
	.cfi_endproc
.LFE13888:
	.size	_ZN7cvflann7anyimpl16small_any_policyIbE9get_valueEPKPv, .-_ZN7cvflann7anyimpl16small_any_policyIbE9get_valueEPKPv
	.section	.text._ZN7cvflann7anyimpl21typed_base_any_policyIbE8get_sizeEv,"axG",@progbits,_ZN7cvflann7anyimpl21typed_base_any_policyIbE8get_sizeEv,comdat
	.align 2
	.p2align 4,,15
	.weak	_ZN7cvflann7anyimpl21typed_base_any_policyIbE8get_sizeEv
	.type	_ZN7cvflann7anyimpl21typed_base_any_policyIbE8get_sizeEv, @function
_ZN7cvflann7anyimpl21typed_base_any_policyIbE8get_sizeEv:
.LFB13889:
	.cfi_startproc
	movl	$1, %eax
	ret
	.cfi_endproc
.LFE13889:
	.size	_ZN7cvflann7anyimpl21typed_base_any_policyIbE8get_sizeEv, .-_ZN7cvflann7anyimpl21typed_base_any_policyIbE8get_sizeEv
	.section	.text._ZN7cvflann7anyimpl21typed_base_any_policyIbE4typeEv,"axG",@progbits,_ZN7cvflann7anyimpl21typed_base_any_policyIbE4typeEv,comdat
	.align 2
	.p2align 4,,15
	.weak	_ZN7cvflann7anyimpl21typed_base_any_policyIbE4typeEv
	.type	_ZN7cvflann7anyimpl21typed_base_any_policyIbE4typeEv, @function
_ZN7cvflann7anyimpl21typed_base_any_policyIbE4typeEv:
.LFB13890:
	.cfi_startproc
	leaq	_ZTIb(%rip), %rax
	ret
	.cfi_endproc
.LFE13890:
	.size	_ZN7cvflann7anyimpl21typed_base_any_policyIbE4typeEv, .-_ZN7cvflann7anyimpl21typed_base_any_policyIbE4typeEv
	.section	.text._ZN7cvflann7anyimpl16small_any_policyIfE13static_deleteEPPv,"axG",@progbits,_ZN7cvflann7anyimpl16small_any_policyIfE13static_deleteEPPv,comdat
	.align 2
	.p2align 4,,15
	.weak	_ZN7cvflann7anyimpl16small_any_policyIfE13static_deleteEPPv
	.type	_ZN7cvflann7anyimpl16small_any_policyIfE13static_deleteEPPv, @function
_ZN7cvflann7anyimpl16small_any_policyIfE13static_deleteEPPv:
.LFB13892:
	.cfi_startproc
	ret
	.cfi_endproc
.LFE13892:
	.size	_ZN7cvflann7anyimpl16small_any_policyIfE13static_deleteEPPv, .-_ZN7cvflann7anyimpl16small_any_policyIfE13static_deleteEPPv
	.section	.text._ZN7cvflann7anyimpl16small_any_policyIfE15copy_from_valueEPKvPPv,"axG",@progbits,_ZN7cvflann7anyimpl16small_any_policyIfE15copy_from_valueEPKvPPv,comdat
	.align 2
	.p2align 4,,15
	.weak	_ZN7cvflann7anyimpl16small_any_policyIfE15copy_from_valueEPKvPPv
	.type	_ZN7cvflann7anyimpl16small_any_policyIfE15copy_from_valueEPKvPPv, @function
_ZN7cvflann7anyimpl16small_any_policyIfE15copy_from_valueEPKvPPv:
.LFB13893:
	.cfi_startproc
	vmovss	(%rsi), %xmm0
	vmovss	%xmm0, (%rdx)
	ret
	.cfi_endproc
.LFE13893:
	.size	_ZN7cvflann7anyimpl16small_any_policyIfE15copy_from_valueEPKvPPv, .-_ZN7cvflann7anyimpl16small_any_policyIfE15copy_from_valueEPKvPPv
	.section	.text._ZN7cvflann7anyimpl16small_any_policyIfE5cloneEPKPvPS3_,"axG",@progbits,_ZN7cvflann7anyimpl16small_any_policyIfE5cloneEPKPvPS3_,comdat
	.align 2
	.p2align 4,,15
	.weak	_ZN7cvflann7anyimpl16small_any_policyIfE5cloneEPKPvPS3_
	.type	_ZN7cvflann7anyimpl16small_any_policyIfE5cloneEPKPvPS3_, @function
_ZN7cvflann7anyimpl16small_any_policyIfE5cloneEPKPvPS3_:
.LFB13894:
	.cfi_startproc
	movq	(%rsi), %rax
	movq	%rax, (%rdx)
	ret
	.cfi_endproc
.LFE13894:
	.size	_ZN7cvflann7anyimpl16small_any_policyIfE5cloneEPKPvPS3_, .-_ZN7cvflann7anyimpl16small_any_policyIfE5cloneEPKPvPS3_
	.section	.text._ZN7cvflann7anyimpl16small_any_policyIfE4moveEPKPvPS3_,"axG",@progbits,_ZN7cvflann7anyimpl16small_any_policyIfE4moveEPKPvPS3_,comdat
	.align 2
	.p2align 4,,15
	.weak	_ZN7cvflann7anyimpl16small_any_policyIfE4moveEPKPvPS3_
	.type	_ZN7cvflann7anyimpl16small_any_policyIfE4moveEPKPvPS3_, @function
_ZN7cvflann7anyimpl16small_any_policyIfE4moveEPKPvPS3_:
.LFB13895:
	.cfi_startproc
	movq	(%rsi), %rax
	movq	%rax, (%rdx)
	ret
	.cfi_endproc
.LFE13895:
	.size	_ZN7cvflann7anyimpl16small_any_policyIfE4moveEPKPvPS3_, .-_ZN7cvflann7anyimpl16small_any_policyIfE4moveEPKPvPS3_
	.section	.text._ZN7cvflann7anyimpl16small_any_policyIfE9get_valueEPPv,"axG",@progbits,_ZN7cvflann7anyimpl16small_any_policyIfE9get_valueEPPv,comdat
	.align 2
	.p2align 4,,15
	.weak	_ZN7cvflann7anyimpl16small_any_policyIfE9get_valueEPPv
	.type	_ZN7cvflann7anyimpl16small_any_policyIfE9get_valueEPPv, @function
_ZN7cvflann7anyimpl16small_any_policyIfE9get_valueEPPv:
.LFB13896:
	.cfi_startproc
	movq	%rsi, %rax
	ret
	.cfi_endproc
.LFE13896:
	.size	_ZN7cvflann7anyimpl16small_any_policyIfE9get_valueEPPv, .-_ZN7cvflann7anyimpl16small_any_policyIfE9get_valueEPPv
	.section	.text._ZN7cvflann7anyimpl16small_any_policyIfE9get_valueEPKPv,"axG",@progbits,_ZN7cvflann7anyimpl16small_any_policyIfE9get_valueEPKPv,comdat
	.align 2
	.p2align 4,,15
	.weak	_ZN7cvflann7anyimpl16small_any_policyIfE9get_valueEPKPv
	.type	_ZN7cvflann7anyimpl16small_any_policyIfE9get_valueEPKPv, @function
_ZN7cvflann7anyimpl16small_any_policyIfE9get_valueEPKPv:
.LFB13897:
	.cfi_startproc
	movq	%rsi, %rax
	ret
	.cfi_endproc
.LFE13897:
	.size	_ZN7cvflann7anyimpl16small_any_policyIfE9get_valueEPKPv, .-_ZN7cvflann7anyimpl16small_any_policyIfE9get_valueEPKPv
	.section	.text._ZN7cvflann7anyimpl21typed_base_any_policyIfE8get_sizeEv,"axG",@progbits,_ZN7cvflann7anyimpl21typed_base_any_policyIfE8get_sizeEv,comdat
	.align 2
	.p2align 4,,15
	.weak	_ZN7cvflann7anyimpl21typed_base_any_policyIfE8get_sizeEv
	.type	_ZN7cvflann7anyimpl21typed_base_any_policyIfE8get_sizeEv, @function
_ZN7cvflann7anyimpl21typed_base_any_policyIfE8get_sizeEv:
.LFB13898:
	.cfi_startproc
	movl	$4, %eax
	ret
	.cfi_endproc
.LFE13898:
	.size	_ZN7cvflann7anyimpl21typed_base_any_policyIfE8get_sizeEv, .-_ZN7cvflann7anyimpl21typed_base_any_policyIfE8get_sizeEv
	.section	.text._ZN7cvflann7anyimpl21typed_base_any_policyIfE4typeEv,"axG",@progbits,_ZN7cvflann7anyimpl21typed_base_any_policyIfE4typeEv,comdat
	.align 2
	.p2align 4,,15
	.weak	_ZN7cvflann7anyimpl21typed_base_any_policyIfE4typeEv
	.type	_ZN7cvflann7anyimpl21typed_base_any_policyIfE4typeEv, @function
_ZN7cvflann7anyimpl21typed_base_any_policyIfE4typeEv:
.LFB13899:
	.cfi_startproc
	leaq	_ZTIf(%rip), %rax
	ret
	.cfi_endproc
.LFE13899:
	.size	_ZN7cvflann7anyimpl21typed_base_any_policyIfE4typeEv, .-_ZN7cvflann7anyimpl21typed_base_any_policyIfE4typeEv
	.section	.text._ZN7cvflann7anyimpl16small_any_policyIiE13static_deleteEPPv,"axG",@progbits,_ZN7cvflann7anyimpl16small_any_policyIiE13static_deleteEPPv,comdat
	.align 2
	.p2align 4,,15
	.weak	_ZN7cvflann7anyimpl16small_any_policyIiE13static_deleteEPPv
	.type	_ZN7cvflann7anyimpl16small_any_policyIiE13static_deleteEPPv, @function
_ZN7cvflann7anyimpl16small_any_policyIiE13static_deleteEPPv:
.LFB13901:
	.cfi_startproc
	ret
	.cfi_endproc
.LFE13901:
	.size	_ZN7cvflann7anyimpl16small_any_policyIiE13static_deleteEPPv, .-_ZN7cvflann7anyimpl16small_any_policyIiE13static_deleteEPPv
	.section	.text._ZN7cvflann7anyimpl16small_any_policyIiE15copy_from_valueEPKvPPv,"axG",@progbits,_ZN7cvflann7anyimpl16small_any_policyIiE15copy_from_valueEPKvPPv,comdat
	.align 2
	.p2align 4,,15
	.weak	_ZN7cvflann7anyimpl16small_any_policyIiE15copy_from_valueEPKvPPv
	.type	_ZN7cvflann7anyimpl16small_any_policyIiE15copy_from_valueEPKvPPv, @function
_ZN7cvflann7anyimpl16small_any_policyIiE15copy_from_valueEPKvPPv:
.LFB13902:
	.cfi_startproc
	movl	(%rsi), %eax
	movl	%eax, (%rdx)
	ret
	.cfi_endproc
.LFE13902:
	.size	_ZN7cvflann7anyimpl16small_any_policyIiE15copy_from_valueEPKvPPv, .-_ZN7cvflann7anyimpl16small_any_policyIiE15copy_from_valueEPKvPPv
	.section	.text._ZN7cvflann7anyimpl16small_any_policyIiE5cloneEPKPvPS3_,"axG",@progbits,_ZN7cvflann7anyimpl16small_any_policyIiE5cloneEPKPvPS3_,comdat
	.align 2
	.p2align 4,,15
	.weak	_ZN7cvflann7anyimpl16small_any_policyIiE5cloneEPKPvPS3_
	.type	_ZN7cvflann7anyimpl16small_any_policyIiE5cloneEPKPvPS3_, @function
_ZN7cvflann7anyimpl16small_any_policyIiE5cloneEPKPvPS3_:
.LFB13903:
	.cfi_startproc
	movq	(%rsi), %rax
	movq	%rax, (%rdx)
	ret
	.cfi_endproc
.LFE13903:
	.size	_ZN7cvflann7anyimpl16small_any_policyIiE5cloneEPKPvPS3_, .-_ZN7cvflann7anyimpl16small_any_policyIiE5cloneEPKPvPS3_
	.section	.text._ZN7cvflann7anyimpl16small_any_policyIiE4moveEPKPvPS3_,"axG",@progbits,_ZN7cvflann7anyimpl16small_any_policyIiE4moveEPKPvPS3_,comdat
	.align 2
	.p2align 4,,15
	.weak	_ZN7cvflann7anyimpl16small_any_policyIiE4moveEPKPvPS3_
	.type	_ZN7cvflann7anyimpl16small_any_policyIiE4moveEPKPvPS3_, @function
_ZN7cvflann7anyimpl16small_any_policyIiE4moveEPKPvPS3_:
.LFB13904:
	.cfi_startproc
	movq	(%rsi), %rax
	movq	%rax, (%rdx)
	ret
	.cfi_endproc
.LFE13904:
	.size	_ZN7cvflann7anyimpl16small_any_policyIiE4moveEPKPvPS3_, .-_ZN7cvflann7anyimpl16small_any_policyIiE4moveEPKPvPS3_
	.section	.text._ZN7cvflann7anyimpl16small_any_policyIiE9get_valueEPPv,"axG",@progbits,_ZN7cvflann7anyimpl16small_any_policyIiE9get_valueEPPv,comdat
	.align 2
	.p2align 4,,15
	.weak	_ZN7cvflann7anyimpl16small_any_policyIiE9get_valueEPPv
	.type	_ZN7cvflann7anyimpl16small_any_policyIiE9get_valueEPPv, @function
_ZN7cvflann7anyimpl16small_any_policyIiE9get_valueEPPv:
.LFB13905:
	.cfi_startproc
	movq	%rsi, %rax
	ret
	.cfi_endproc
.LFE13905:
	.size	_ZN7cvflann7anyimpl16small_any_policyIiE9get_valueEPPv, .-_ZN7cvflann7anyimpl16small_any_policyIiE9get_valueEPPv
	.section	.text._ZN7cvflann7anyimpl16small_any_policyIiE9get_valueEPKPv,"axG",@progbits,_ZN7cvflann7anyimpl16small_any_policyIiE9get_valueEPKPv,comdat
	.align 2
	.p2align 4,,15
	.weak	_ZN7cvflann7anyimpl16small_any_policyIiE9get_valueEPKPv
	.type	_ZN7cvflann7anyimpl16small_any_policyIiE9get_valueEPKPv, @function
_ZN7cvflann7anyimpl16small_any_policyIiE9get_valueEPKPv:
.LFB13906:
	.cfi_startproc
	movq	%rsi, %rax
	ret
	.cfi_endproc
.LFE13906:
	.size	_ZN7cvflann7anyimpl16small_any_policyIiE9get_valueEPKPv, .-_ZN7cvflann7anyimpl16small_any_policyIiE9get_valueEPKPv
	.section	.text._ZN7cvflann7anyimpl21typed_base_any_policyIiE8get_sizeEv,"axG",@progbits,_ZN7cvflann7anyimpl21typed_base_any_policyIiE8get_sizeEv,comdat
	.align 2
	.p2align 4,,15
	.weak	_ZN7cvflann7anyimpl21typed_base_any_policyIiE8get_sizeEv
	.type	_ZN7cvflann7anyimpl21typed_base_any_policyIiE8get_sizeEv, @function
_ZN7cvflann7anyimpl21typed_base_any_policyIiE8get_sizeEv:
.LFB13907:
	.cfi_startproc
	movl	$4, %eax
	ret
	.cfi_endproc
.LFE13907:
	.size	_ZN7cvflann7anyimpl21typed_base_any_policyIiE8get_sizeEv, .-_ZN7cvflann7anyimpl21typed_base_any_policyIiE8get_sizeEv
	.section	.text._ZN7cvflann7anyimpl21typed_base_any_policyIiE4typeEv,"axG",@progbits,_ZN7cvflann7anyimpl21typed_base_any_policyIiE4typeEv,comdat
	.align 2
	.p2align 4,,15
	.weak	_ZN7cvflann7anyimpl21typed_base_any_policyIiE4typeEv
	.type	_ZN7cvflann7anyimpl21typed_base_any_policyIiE4typeEv, @function
_ZN7cvflann7anyimpl21typed_base_any_policyIiE4typeEv:
.LFB13908:
	.cfi_startproc
	leaq	_ZTIi(%rip), %rax
	ret
	.cfi_endproc
.LFE13908:
	.size	_ZN7cvflann7anyimpl21typed_base_any_policyIiE4typeEv, .-_ZN7cvflann7anyimpl21typed_base_any_policyIiE4typeEv
	.section	.text._ZN7cvflann7anyimpl16small_any_policyIPKcE13static_deleteEPPv,"axG",@progbits,_ZN7cvflann7anyimpl16small_any_policyIPKcE13static_deleteEPPv,comdat
	.align 2
	.p2align 4,,15
	.weak	_ZN7cvflann7anyimpl16small_any_policyIPKcE13static_deleteEPPv
	.type	_ZN7cvflann7anyimpl16small_any_policyIPKcE13static_deleteEPPv, @function
_ZN7cvflann7anyimpl16small_any_policyIPKcE13static_deleteEPPv:
.LFB13912:
	.cfi_startproc
	ret
	.cfi_endproc
.LFE13912:
	.size	_ZN7cvflann7anyimpl16small_any_policyIPKcE13static_deleteEPPv, .-_ZN7cvflann7anyimpl16small_any_policyIPKcE13static_deleteEPPv
	.section	.text._ZN7cvflann7anyimpl16small_any_policyIPKcE15copy_from_valueEPKvPPv,"axG",@progbits,_ZN7cvflann7anyimpl16small_any_policyIPKcE15copy_from_valueEPKvPPv,comdat
	.align 2
	.p2align 4,,15
	.weak	_ZN7cvflann7anyimpl16small_any_policyIPKcE15copy_from_valueEPKvPPv
	.type	_ZN7cvflann7anyimpl16small_any_policyIPKcE15copy_from_valueEPKvPPv, @function
_ZN7cvflann7anyimpl16small_any_policyIPKcE15copy_from_valueEPKvPPv:
.LFB13913:
	.cfi_startproc
	movq	(%rsi), %rax
	movq	%rax, (%rdx)
	ret
	.cfi_endproc
.LFE13913:
	.size	_ZN7cvflann7anyimpl16small_any_policyIPKcE15copy_from_valueEPKvPPv, .-_ZN7cvflann7anyimpl16small_any_policyIPKcE15copy_from_valueEPKvPPv
	.section	.text._ZN7cvflann7anyimpl16small_any_policyIPKcE5cloneEPKPvPS5_,"axG",@progbits,_ZN7cvflann7anyimpl16small_any_policyIPKcE5cloneEPKPvPS5_,comdat
	.align 2
	.p2align 4,,15
	.weak	_ZN7cvflann7anyimpl16small_any_policyIPKcE5cloneEPKPvPS5_
	.type	_ZN7cvflann7anyimpl16small_any_policyIPKcE5cloneEPKPvPS5_, @function
_ZN7cvflann7anyimpl16small_any_policyIPKcE5cloneEPKPvPS5_:
.LFB13914:
	.cfi_startproc
	movq	(%rsi), %rax
	movq	%rax, (%rdx)
	ret
	.cfi_endproc
.LFE13914:
	.size	_ZN7cvflann7anyimpl16small_any_policyIPKcE5cloneEPKPvPS5_, .-_ZN7cvflann7anyimpl16small_any_policyIPKcE5cloneEPKPvPS5_
	.section	.text._ZN7cvflann7anyimpl16small_any_policyIPKcE4moveEPKPvPS5_,"axG",@progbits,_ZN7cvflann7anyimpl16small_any_policyIPKcE4moveEPKPvPS5_,comdat
	.align 2
	.p2align 4,,15
	.weak	_ZN7cvflann7anyimpl16small_any_policyIPKcE4moveEPKPvPS5_
	.type	_ZN7cvflann7anyimpl16small_any_policyIPKcE4moveEPKPvPS5_, @function
_ZN7cvflann7anyimpl16small_any_policyIPKcE4moveEPKPvPS5_:
.LFB13915:
	.cfi_startproc
	movq	(%rsi), %rax
	movq	%rax, (%rdx)
	ret
	.cfi_endproc
.LFE13915:
	.size	_ZN7cvflann7anyimpl16small_any_policyIPKcE4moveEPKPvPS5_, .-_ZN7cvflann7anyimpl16small_any_policyIPKcE4moveEPKPvPS5_
	.section	.text._ZN7cvflann7anyimpl16small_any_policyIPKcE9get_valueEPPv,"axG",@progbits,_ZN7cvflann7anyimpl16small_any_policyIPKcE9get_valueEPPv,comdat
	.align 2
	.p2align 4,,15
	.weak	_ZN7cvflann7anyimpl16small_any_policyIPKcE9get_valueEPPv
	.type	_ZN7cvflann7anyimpl16small_any_policyIPKcE9get_valueEPPv, @function
_ZN7cvflann7anyimpl16small_any_policyIPKcE9get_valueEPPv:
.LFB13916:
	.cfi_startproc
	movq	%rsi, %rax
	ret
	.cfi_endproc
.LFE13916:
	.size	_ZN7cvflann7anyimpl16small_any_policyIPKcE9get_valueEPPv, .-_ZN7cvflann7anyimpl16small_any_policyIPKcE9get_valueEPPv
	.section	.text._ZN7cvflann7anyimpl16small_any_policyIPKcE9get_valueEPKPv,"axG",@progbits,_ZN7cvflann7anyimpl16small_any_policyIPKcE9get_valueEPKPv,comdat
	.align 2
	.p2align 4,,15
	.weak	_ZN7cvflann7anyimpl16small_any_policyIPKcE9get_valueEPKPv
	.type	_ZN7cvflann7anyimpl16small_any_policyIPKcE9get_valueEPKPv, @function
_ZN7cvflann7anyimpl16small_any_policyIPKcE9get_valueEPKPv:
.LFB13917:
	.cfi_startproc
	movq	%rsi, %rax
	ret
	.cfi_endproc
.LFE13917:
	.size	_ZN7cvflann7anyimpl16small_any_policyIPKcE9get_valueEPKPv, .-_ZN7cvflann7anyimpl16small_any_policyIPKcE9get_valueEPKPv
	.section	.text._ZN7cvflann7anyimpl21typed_base_any_policyIPKcE8get_sizeEv,"axG",@progbits,_ZN7cvflann7anyimpl21typed_base_any_policyIPKcE8get_sizeEv,comdat
	.align 2
	.p2align 4,,15
	.weak	_ZN7cvflann7anyimpl21typed_base_any_policyIPKcE8get_sizeEv
	.type	_ZN7cvflann7anyimpl21typed_base_any_policyIPKcE8get_sizeEv, @function
_ZN7cvflann7anyimpl21typed_base_any_policyIPKcE8get_sizeEv:
.LFB13918:
	.cfi_startproc
	movl	$8, %eax
	ret
	.cfi_endproc
.LFE13918:
	.size	_ZN7cvflann7anyimpl21typed_base_any_policyIPKcE8get_sizeEv, .-_ZN7cvflann7anyimpl21typed_base_any_policyIPKcE8get_sizeEv
	.section	.text._ZN7cvflann7anyimpl21typed_base_any_policyIPKcE4typeEv,"axG",@progbits,_ZN7cvflann7anyimpl21typed_base_any_policyIPKcE4typeEv,comdat
	.align 2
	.p2align 4,,15
	.weak	_ZN7cvflann7anyimpl21typed_base_any_policyIPKcE4typeEv
	.type	_ZN7cvflann7anyimpl21typed_base_any_policyIPKcE4typeEv, @function
_ZN7cvflann7anyimpl21typed_base_any_policyIPKcE4typeEv:
.LFB13919:
	.cfi_startproc
	leaq	_ZTIPKc(%rip), %rax
	ret
	.cfi_endproc
.LFE13919:
	.size	_ZN7cvflann7anyimpl21typed_base_any_policyIPKcE4typeEv, .-_ZN7cvflann7anyimpl21typed_base_any_policyIPKcE4typeEv
	.section	.text._ZN7cvflann7anyimpl14big_any_policyINS0_9empty_anyEE4moveEPKPvPS4_,"axG",@progbits,_ZN7cvflann7anyimpl14big_any_policyINS0_9empty_anyEE4moveEPKPvPS4_,comdat
	.align 2
	.p2align 4,,15
	.weak	_ZN7cvflann7anyimpl14big_any_policyINS0_9empty_anyEE4moveEPKPvPS4_
	.type	_ZN7cvflann7anyimpl14big_any_policyINS0_9empty_anyEE4moveEPKPvPS4_, @function
_ZN7cvflann7anyimpl14big_any_policyINS0_9empty_anyEE4moveEPKPvPS4_:
.LFB14036:
	.cfi_startproc
	ret
	.cfi_endproc
.LFE14036:
	.size	_ZN7cvflann7anyimpl14big_any_policyINS0_9empty_anyEE4moveEPKPvPS4_, .-_ZN7cvflann7anyimpl14big_any_policyINS0_9empty_anyEE4moveEPKPvPS4_
	.section	.text._ZN7cvflann7anyimpl14big_any_policyINS0_9empty_anyEE9get_valueEPPv,"axG",@progbits,_ZN7cvflann7anyimpl14big_any_policyINS0_9empty_anyEE9get_valueEPPv,comdat
	.align 2
	.p2align 4,,15
	.weak	_ZN7cvflann7anyimpl14big_any_policyINS0_9empty_anyEE9get_valueEPPv
	.type	_ZN7cvflann7anyimpl14big_any_policyINS0_9empty_anyEE9get_valueEPPv, @function
_ZN7cvflann7anyimpl14big_any_policyINS0_9empty_anyEE9get_valueEPPv:
.LFB14037:
	.cfi_startproc
	movq	(%rsi), %rax
	ret
	.cfi_endproc
.LFE14037:
	.size	_ZN7cvflann7anyimpl14big_any_policyINS0_9empty_anyEE9get_valueEPPv, .-_ZN7cvflann7anyimpl14big_any_policyINS0_9empty_anyEE9get_valueEPPv
	.section	.text._ZN7cvflann7anyimpl14big_any_policyINS0_9empty_anyEE9get_valueEPKPv,"axG",@progbits,_ZN7cvflann7anyimpl14big_any_policyINS0_9empty_anyEE9get_valueEPKPv,comdat
	.align 2
	.p2align 4,,15
	.weak	_ZN7cvflann7anyimpl14big_any_policyINS0_9empty_anyEE9get_valueEPKPv
	.type	_ZN7cvflann7anyimpl14big_any_policyINS0_9empty_anyEE9get_valueEPKPv, @function
_ZN7cvflann7anyimpl14big_any_policyINS0_9empty_anyEE9get_valueEPKPv:
.LFB14038:
	.cfi_startproc
	movq	(%rsi), %rax
	ret
	.cfi_endproc
.LFE14038:
	.size	_ZN7cvflann7anyimpl14big_any_policyINS0_9empty_anyEE9get_valueEPKPv, .-_ZN7cvflann7anyimpl14big_any_policyINS0_9empty_anyEE9get_valueEPKPv
	.section	.text._ZN7cvflann7anyimpl21typed_base_any_policyINS0_9empty_anyEE8get_sizeEv,"axG",@progbits,_ZN7cvflann7anyimpl21typed_base_any_policyINS0_9empty_anyEE8get_sizeEv,comdat
	.align 2
	.p2align 4,,15
	.weak	_ZN7cvflann7anyimpl21typed_base_any_policyINS0_9empty_anyEE8get_sizeEv
	.type	_ZN7cvflann7anyimpl21typed_base_any_policyINS0_9empty_anyEE8get_sizeEv, @function
_ZN7cvflann7anyimpl21typed_base_any_policyINS0_9empty_anyEE8get_sizeEv:
.LFB14039:
	.cfi_startproc
	movl	$1, %eax
	ret
	.cfi_endproc
.LFE14039:
	.size	_ZN7cvflann7anyimpl21typed_base_any_policyINS0_9empty_anyEE8get_sizeEv, .-_ZN7cvflann7anyimpl21typed_base_any_policyINS0_9empty_anyEE8get_sizeEv
	.section	.text._ZN7cvflann7anyimpl21typed_base_any_policyINS0_9empty_anyEE4typeEv,"axG",@progbits,_ZN7cvflann7anyimpl21typed_base_any_policyINS0_9empty_anyEE4typeEv,comdat
	.align 2
	.p2align 4,,15
	.weak	_ZN7cvflann7anyimpl21typed_base_any_policyINS0_9empty_anyEE4typeEv
	.type	_ZN7cvflann7anyimpl21typed_base_any_policyINS0_9empty_anyEE4typeEv, @function
_ZN7cvflann7anyimpl21typed_base_any_policyINS0_9empty_anyEE4typeEv:
.LFB14040:
	.cfi_startproc
	leaq	_ZTIN7cvflann7anyimpl9empty_anyE(%rip), %rax
	ret
	.cfi_endproc
.LFE14040:
	.size	_ZN7cvflann7anyimpl21typed_base_any_policyINS0_9empty_anyEE4typeEv, .-_ZN7cvflann7anyimpl21typed_base_any_policyINS0_9empty_anyEE4typeEv
	.section	.text._ZN7cvflann7anyimpl14big_any_policyIN2cv6StringEE9get_valueEPPv,"axG",@progbits,_ZN7cvflann7anyimpl14big_any_policyIN2cv6StringEE9get_valueEPPv,comdat
	.align 2
	.p2align 4,,15
	.weak	_ZN7cvflann7anyimpl14big_any_policyIN2cv6StringEE9get_valueEPPv
	.type	_ZN7cvflann7anyimpl14big_any_policyIN2cv6StringEE9get_valueEPPv, @function
_ZN7cvflann7anyimpl14big_any_policyIN2cv6StringEE9get_valueEPPv:
.LFB14046:
	.cfi_startproc
	movq	(%rsi), %rax
	ret
	.cfi_endproc
.LFE14046:
	.size	_ZN7cvflann7anyimpl14big_any_policyIN2cv6StringEE9get_valueEPPv, .-_ZN7cvflann7anyimpl14big_any_policyIN2cv6StringEE9get_valueEPPv
	.section	.text._ZN7cvflann7anyimpl14big_any_policyIN2cv6StringEE9get_valueEPKPv,"axG",@progbits,_ZN7cvflann7anyimpl14big_any_policyIN2cv6StringEE9get_valueEPKPv,comdat
	.align 2
	.p2align 4,,15
	.weak	_ZN7cvflann7anyimpl14big_any_policyIN2cv6StringEE9get_valueEPKPv
	.type	_ZN7cvflann7anyimpl14big_any_policyIN2cv6StringEE9get_valueEPKPv, @function
_ZN7cvflann7anyimpl14big_any_policyIN2cv6StringEE9get_valueEPKPv:
.LFB14047:
	.cfi_startproc
	movq	(%rsi), %rax
	ret
	.cfi_endproc
.LFE14047:
	.size	_ZN7cvflann7anyimpl14big_any_policyIN2cv6StringEE9get_valueEPKPv, .-_ZN7cvflann7anyimpl14big_any_policyIN2cv6StringEE9get_valueEPKPv
	.section	.text._ZN7cvflann7anyimpl21typed_base_any_policyIN2cv6StringEE8get_sizeEv,"axG",@progbits,_ZN7cvflann7anyimpl21typed_base_any_policyIN2cv6StringEE8get_sizeEv,comdat
	.align 2
	.p2align 4,,15
	.weak	_ZN7cvflann7anyimpl21typed_base_any_policyIN2cv6StringEE8get_sizeEv
	.type	_ZN7cvflann7anyimpl21typed_base_any_policyIN2cv6StringEE8get_sizeEv, @function
_ZN7cvflann7anyimpl21typed_base_any_policyIN2cv6StringEE8get_sizeEv:
.LFB14048:
	.cfi_startproc
	movl	$16, %eax
	ret
	.cfi_endproc
.LFE14048:
	.size	_ZN7cvflann7anyimpl21typed_base_any_policyIN2cv6StringEE8get_sizeEv, .-_ZN7cvflann7anyimpl21typed_base_any_policyIN2cv6StringEE8get_sizeEv
	.section	.text._ZN7cvflann7anyimpl21typed_base_any_policyIN2cv6StringEE4typeEv,"axG",@progbits,_ZN7cvflann7anyimpl21typed_base_any_policyIN2cv6StringEE4typeEv,comdat
	.align 2
	.p2align 4,,15
	.weak	_ZN7cvflann7anyimpl21typed_base_any_policyIN2cv6StringEE4typeEv
	.type	_ZN7cvflann7anyimpl21typed_base_any_policyIN2cv6StringEE4typeEv, @function
_ZN7cvflann7anyimpl21typed_base_any_policyIN2cv6StringEE4typeEv:
.LFB14049:
	.cfi_startproc
	leaq	_ZTIN2cv6StringE(%rip), %rax
	ret
	.cfi_endproc
.LFE14049:
	.size	_ZN7cvflann7anyimpl21typed_base_any_policyIN2cv6StringEE4typeEv, .-_ZN7cvflann7anyimpl21typed_base_any_policyIN2cv6StringEE4typeEv
	.section	.text._ZN7cvflann7anyimpl14big_any_policyINS_17flann_algorithm_tEE4moveEPKPvPS4_,"axG",@progbits,_ZN7cvflann7anyimpl14big_any_policyINS_17flann_algorithm_tEE4moveEPKPvPS4_,comdat
	.align 2
	.p2align 4,,15
	.weak	_ZN7cvflann7anyimpl14big_any_policyINS_17flann_algorithm_tEE4moveEPKPvPS4_
	.type	_ZN7cvflann7anyimpl14big_any_policyINS_17flann_algorithm_tEE4moveEPKPvPS4_, @function
_ZN7cvflann7anyimpl14big_any_policyINS_17flann_algorithm_tEE4moveEPKPvPS4_:
.LFB14053:
	.cfi_startproc
	movq	(%rsi), %rax
	movl	(%rax), %ecx
	movq	(%rdx), %rax
	movl	%ecx, (%rax)
	ret
	.cfi_endproc
.LFE14053:
	.size	_ZN7cvflann7anyimpl14big_any_policyINS_17flann_algorithm_tEE4moveEPKPvPS4_, .-_ZN7cvflann7anyimpl14big_any_policyINS_17flann_algorithm_tEE4moveEPKPvPS4_
	.section	.text._ZN7cvflann7anyimpl14big_any_policyINS_17flann_algorithm_tEE9get_valueEPPv,"axG",@progbits,_ZN7cvflann7anyimpl14big_any_policyINS_17flann_algorithm_tEE9get_valueEPPv,comdat
	.align 2
	.p2align 4,,15
	.weak	_ZN7cvflann7anyimpl14big_any_policyINS_17flann_algorithm_tEE9get_valueEPPv
	.type	_ZN7cvflann7anyimpl14big_any_policyINS_17flann_algorithm_tEE9get_valueEPPv, @function
_ZN7cvflann7anyimpl14big_any_policyINS_17flann_algorithm_tEE9get_valueEPPv:
.LFB14054:
	.cfi_startproc
	movq	(%rsi), %rax
	ret
	.cfi_endproc
.LFE14054:
	.size	_ZN7cvflann7anyimpl14big_any_policyINS_17flann_algorithm_tEE9get_valueEPPv, .-_ZN7cvflann7anyimpl14big_any_policyINS_17flann_algorithm_tEE9get_valueEPPv
	.section	.text._ZN7cvflann7anyimpl14big_any_policyINS_17flann_algorithm_tEE9get_valueEPKPv,"axG",@progbits,_ZN7cvflann7anyimpl14big_any_policyINS_17flann_algorithm_tEE9get_valueEPKPv,comdat
	.align 2
	.p2align 4,,15
	.weak	_ZN7cvflann7anyimpl14big_any_policyINS_17flann_algorithm_tEE9get_valueEPKPv
	.type	_ZN7cvflann7anyimpl14big_any_policyINS_17flann_algorithm_tEE9get_valueEPKPv, @function
_ZN7cvflann7anyimpl14big_any_policyINS_17flann_algorithm_tEE9get_valueEPKPv:
.LFB14055:
	.cfi_startproc
	movq	(%rsi), %rax
	ret
	.cfi_endproc
.LFE14055:
	.size	_ZN7cvflann7anyimpl14big_any_policyINS_17flann_algorithm_tEE9get_valueEPKPv, .-_ZN7cvflann7anyimpl14big_any_policyINS_17flann_algorithm_tEE9get_valueEPKPv
	.section	.text._ZN7cvflann7anyimpl21typed_base_any_policyINS_17flann_algorithm_tEE8get_sizeEv,"axG",@progbits,_ZN7cvflann7anyimpl21typed_base_any_policyINS_17flann_algorithm_tEE8get_sizeEv,comdat
	.align 2
	.p2align 4,,15
	.weak	_ZN7cvflann7anyimpl21typed_base_any_policyINS_17flann_algorithm_tEE8get_sizeEv
	.type	_ZN7cvflann7anyimpl21typed_base_any_policyINS_17flann_algorithm_tEE8get_sizeEv, @function
_ZN7cvflann7anyimpl21typed_base_any_policyINS_17flann_algorithm_tEE8get_sizeEv:
.LFB14056:
	.cfi_startproc
	movl	$4, %eax
	ret
	.cfi_endproc
.LFE14056:
	.size	_ZN7cvflann7anyimpl21typed_base_any_policyINS_17flann_algorithm_tEE8get_sizeEv, .-_ZN7cvflann7anyimpl21typed_base_any_policyINS_17flann_algorithm_tEE8get_sizeEv
	.section	.text._ZN7cvflann7anyimpl21typed_base_any_policyINS_17flann_algorithm_tEE4typeEv,"axG",@progbits,_ZN7cvflann7anyimpl21typed_base_any_policyINS_17flann_algorithm_tEE4typeEv,comdat
	.align 2
	.p2align 4,,15
	.weak	_ZN7cvflann7anyimpl21typed_base_any_policyINS_17flann_algorithm_tEE4typeEv
	.type	_ZN7cvflann7anyimpl21typed_base_any_policyINS_17flann_algorithm_tEE4typeEv, @function
_ZN7cvflann7anyimpl21typed_base_any_policyINS_17flann_algorithm_tEE4typeEv:
.LFB14057:
	.cfi_startproc
	leaq	_ZTIN7cvflann17flann_algorithm_tE(%rip), %rax
	ret
	.cfi_endproc
.LFE14057:
	.size	_ZN7cvflann7anyimpl21typed_base_any_policyINS_17flann_algorithm_tEE4typeEv, .-_ZN7cvflann7anyimpl21typed_base_any_policyINS_17flann_algorithm_tEE4typeEv
	.section	.text._ZN7cvflann7anyimpl14big_any_policyINS_20flann_centers_init_tEE4moveEPKPvPS4_,"axG",@progbits,_ZN7cvflann7anyimpl14big_any_policyINS_20flann_centers_init_tEE4moveEPKPvPS4_,comdat
	.align 2
	.p2align 4,,15
	.weak	_ZN7cvflann7anyimpl14big_any_policyINS_20flann_centers_init_tEE4moveEPKPvPS4_
	.type	_ZN7cvflann7anyimpl14big_any_policyINS_20flann_centers_init_tEE4moveEPKPvPS4_, @function
_ZN7cvflann7anyimpl14big_any_policyINS_20flann_centers_init_tEE4moveEPKPvPS4_:
.LFB14061:
	.cfi_startproc
	movq	(%rsi), %rax
	movl	(%rax), %ecx
	movq	(%rdx), %rax
	movl	%ecx, (%rax)
	ret
	.cfi_endproc
.LFE14061:
	.size	_ZN7cvflann7anyimpl14big_any_policyINS_20flann_centers_init_tEE4moveEPKPvPS4_, .-_ZN7cvflann7anyimpl14big_any_policyINS_20flann_centers_init_tEE4moveEPKPvPS4_
	.section	.text._ZN7cvflann7anyimpl14big_any_policyINS_20flann_centers_init_tEE9get_valueEPPv,"axG",@progbits,_ZN7cvflann7anyimpl14big_any_policyINS_20flann_centers_init_tEE9get_valueEPPv,comdat
	.align 2
	.p2align 4,,15
	.weak	_ZN7cvflann7anyimpl14big_any_policyINS_20flann_centers_init_tEE9get_valueEPPv
	.type	_ZN7cvflann7anyimpl14big_any_policyINS_20flann_centers_init_tEE9get_valueEPPv, @function
_ZN7cvflann7anyimpl14big_any_policyINS_20flann_centers_init_tEE9get_valueEPPv:
.LFB14062:
	.cfi_startproc
	movq	(%rsi), %rax
	ret
	.cfi_endproc
.LFE14062:
	.size	_ZN7cvflann7anyimpl14big_any_policyINS_20flann_centers_init_tEE9get_valueEPPv, .-_ZN7cvflann7anyimpl14big_any_policyINS_20flann_centers_init_tEE9get_valueEPPv
	.section	.text._ZN7cvflann7anyimpl14big_any_policyINS_20flann_centers_init_tEE9get_valueEPKPv,"axG",@progbits,_ZN7cvflann7anyimpl14big_any_policyINS_20flann_centers_init_tEE9get_valueEPKPv,comdat
	.align 2
	.p2align 4,,15
	.weak	_ZN7cvflann7anyimpl14big_any_policyINS_20flann_centers_init_tEE9get_valueEPKPv
	.type	_ZN7cvflann7anyimpl14big_any_policyINS_20flann_centers_init_tEE9get_valueEPKPv, @function
_ZN7cvflann7anyimpl14big_any_policyINS_20flann_centers_init_tEE9get_valueEPKPv:
.LFB14063:
	.cfi_startproc
	movq	(%rsi), %rax
	ret
	.cfi_endproc
.LFE14063:
	.size	_ZN7cvflann7anyimpl14big_any_policyINS_20flann_centers_init_tEE9get_valueEPKPv, .-_ZN7cvflann7anyimpl14big_any_policyINS_20flann_centers_init_tEE9get_valueEPKPv
	.section	.text._ZN7cvflann7anyimpl21typed_base_any_policyINS_20flann_centers_init_tEE8get_sizeEv,"axG",@progbits,_ZN7cvflann7anyimpl21typed_base_any_policyINS_20flann_centers_init_tEE8get_sizeEv,comdat
	.align 2
	.p2align 4,,15
	.weak	_ZN7cvflann7anyimpl21typed_base_any_policyINS_20flann_centers_init_tEE8get_sizeEv
	.type	_ZN7cvflann7anyimpl21typed_base_any_policyINS_20flann_centers_init_tEE8get_sizeEv, @function
_ZN7cvflann7anyimpl21typed_base_any_policyINS_20flann_centers_init_tEE8get_sizeEv:
.LFB14064:
	.cfi_startproc
	movl	$4, %eax
	ret
	.cfi_endproc
.LFE14064:
	.size	_ZN7cvflann7anyimpl21typed_base_any_policyINS_20flann_centers_init_tEE8get_sizeEv, .-_ZN7cvflann7anyimpl21typed_base_any_policyINS_20flann_centers_init_tEE8get_sizeEv
	.section	.text._ZN7cvflann7anyimpl21typed_base_any_policyINS_20flann_centers_init_tEE4typeEv,"axG",@progbits,_ZN7cvflann7anyimpl21typed_base_any_policyINS_20flann_centers_init_tEE4typeEv,comdat
	.align 2
	.p2align 4,,15
	.weak	_ZN7cvflann7anyimpl21typed_base_any_policyINS_20flann_centers_init_tEE4typeEv
	.type	_ZN7cvflann7anyimpl21typed_base_any_policyINS_20flann_centers_init_tEE4typeEv, @function
_ZN7cvflann7anyimpl21typed_base_any_policyINS_20flann_centers_init_tEE4typeEv:
.LFB14065:
	.cfi_startproc
	leaq	_ZTIN7cvflann20flann_centers_init_tE(%rip), %rax
	ret
	.cfi_endproc
.LFE14065:
	.size	_ZN7cvflann7anyimpl21typed_base_any_policyINS_20flann_centers_init_tEE4typeEv, .-_ZN7cvflann7anyimpl21typed_base_any_policyINS_20flann_centers_init_tEE4typeEv
	.section	.text._ZN7cvflann7anyimpl14big_any_policyINS_20flann_centers_init_tEE5printERSoPKPv,"axG",@progbits,_ZN7cvflann7anyimpl14big_any_policyINS_20flann_centers_init_tEE5printERSoPKPv,comdat
	.align 2
	.p2align 4,,15
	.weak	_ZN7cvflann7anyimpl14big_any_policyINS_20flann_centers_init_tEE5printERSoPKPv
	.type	_ZN7cvflann7anyimpl14big_any_policyINS_20flann_centers_init_tEE5printERSoPKPv, @function
_ZN7cvflann7anyimpl14big_any_policyINS_20flann_centers_init_tEE5printERSoPKPv:
.LFB7705:
	.cfi_startproc
	movq	(%rdx), %rax
	movq	%rsi, %rdi
	movl	(%rax), %esi
	jmp	_ZNSolsEi@PLT
	.cfi_endproc
.LFE7705:
	.size	_ZN7cvflann7anyimpl14big_any_policyINS_20flann_centers_init_tEE5printERSoPKPv, .-_ZN7cvflann7anyimpl14big_any_policyINS_20flann_centers_init_tEE5printERSoPKPv
	.section	.text._ZN7cvflann7anyimpl14big_any_policyINS_17flann_algorithm_tEE5printERSoPKPv,"axG",@progbits,_ZN7cvflann7anyimpl14big_any_policyINS_17flann_algorithm_tEE5printERSoPKPv,comdat
	.align 2
	.p2align 4,,15
	.weak	_ZN7cvflann7anyimpl14big_any_policyINS_17flann_algorithm_tEE5printERSoPKPv
	.type	_ZN7cvflann7anyimpl14big_any_policyINS_17flann_algorithm_tEE5printERSoPKPv, @function
_ZN7cvflann7anyimpl14big_any_policyINS_17flann_algorithm_tEE5printERSoPKPv:
.LFB7706:
	.cfi_startproc
	movq	(%rdx), %rax
	movq	%rsi, %rdi
	movl	(%rax), %esi
	jmp	_ZNSolsEi@PLT
	.cfi_endproc
.LFE7706:
	.size	_ZN7cvflann7anyimpl14big_any_policyINS_17flann_algorithm_tEE5printERSoPKPv, .-_ZN7cvflann7anyimpl14big_any_policyINS_17flann_algorithm_tEE5printERSoPKPv
	.section	.text._ZN7cvflann7anyimpl16small_any_policyIiE5printERSoPKPv,"axG",@progbits,_ZN7cvflann7anyimpl16small_any_policyIiE5printERSoPKPv,comdat
	.align 2
	.p2align 4,,15
	.weak	_ZN7cvflann7anyimpl16small_any_policyIiE5printERSoPKPv
	.type	_ZN7cvflann7anyimpl16small_any_policyIiE5printERSoPKPv, @function
_ZN7cvflann7anyimpl16small_any_policyIiE5printERSoPKPv:
.LFB13909:
	.cfi_startproc
	movq	%rsi, %rdi
	movl	(%rdx), %esi
	jmp	_ZNSolsEi@PLT
	.cfi_endproc
.LFE13909:
	.size	_ZN7cvflann7anyimpl16small_any_policyIiE5printERSoPKPv, .-_ZN7cvflann7anyimpl16small_any_policyIiE5printERSoPKPv
	.section	.text._ZN7cvflann7anyimpl14big_any_policyINS_20flann_centers_init_tEE5cloneEPKPvPS4_,"axG",@progbits,_ZN7cvflann7anyimpl14big_any_policyINS_20flann_centers_init_tEE5cloneEPKPvPS4_,comdat
	.align 2
	.p2align 4,,15
	.weak	_ZN7cvflann7anyimpl14big_any_policyINS_20flann_centers_init_tEE5cloneEPKPvPS4_
	.type	_ZN7cvflann7anyimpl14big_any_policyINS_20flann_centers_init_tEE5cloneEPKPvPS4_, @function
_ZN7cvflann7anyimpl14big_any_policyINS_20flann_centers_init_tEE5cloneEPKPvPS4_:
.LFB14060:
	.cfi_startproc
	pushq	%rbp
	.cfi_def_cfa_offset 16
	.cfi_offset 6, -16
	movl	$4, %edi
	movq	%rsp, %rbp
	.cfi_def_cfa_register 6
	pushq	%r12
	.cfi_offset 12, -24
	movq	%rsi, %r12
	pushq	%rbx
	.cfi_offset 3, -32
	movq	%rdx, %rbx
	call	_Znwm@PLT
	movq	(%r12), %rdx
	movl	(%rdx), %edx
	movq	%rax, (%rbx)
	movl	%edx, (%rax)
	popq	%rbx
	popq	%r12
	popq	%rbp
	.cfi_def_cfa 7, 8
	ret
	.cfi_endproc
.LFE14060:
	.size	_ZN7cvflann7anyimpl14big_any_policyINS_20flann_centers_init_tEE5cloneEPKPvPS4_, .-_ZN7cvflann7anyimpl14big_any_policyINS_20flann_centers_init_tEE5cloneEPKPvPS4_
	.section	.text._ZN7cvflann7anyimpl14big_any_policyINS_20flann_centers_init_tEE15copy_from_valueEPKvPPv,"axG",@progbits,_ZN7cvflann7anyimpl14big_any_policyINS_20flann_centers_init_tEE15copy_from_valueEPKvPPv,comdat
	.align 2
	.p2align 4,,15
	.weak	_ZN7cvflann7anyimpl14big_any_policyINS_20flann_centers_init_tEE15copy_from_valueEPKvPPv
	.type	_ZN7cvflann7anyimpl14big_any_policyINS_20flann_centers_init_tEE15copy_from_valueEPKvPPv, @function
_ZN7cvflann7anyimpl14big_any_policyINS_20flann_centers_init_tEE15copy_from_valueEPKvPPv:
.LFB14059:
	.cfi_startproc
	pushq	%rbp
	.cfi_def_cfa_offset 16
	.cfi_offset 6, -16
	movl	$4, %edi
	movq	%rsp, %rbp
	.cfi_def_cfa_register 6
	pushq	%r12
	.cfi_offset 12, -24
	movq	%rsi, %r12
	pushq	%rbx
	.cfi_offset 3, -32
	movq	%rdx, %rbx
	call	_Znwm@PLT
	movl	(%r12), %edx
	movq	%rax, (%rbx)
	movl	%edx, (%rax)
	popq	%rbx
	popq	%r12
	popq	%rbp
	.cfi_def_cfa 7, 8
	ret
	.cfi_endproc
.LFE14059:
	.size	_ZN7cvflann7anyimpl14big_any_policyINS_20flann_centers_init_tEE15copy_from_valueEPKvPPv, .-_ZN7cvflann7anyimpl14big_any_policyINS_20flann_centers_init_tEE15copy_from_valueEPKvPPv
	.section	.text._ZN7cvflann7anyimpl14big_any_policyINS_17flann_algorithm_tEE5cloneEPKPvPS4_,"axG",@progbits,_ZN7cvflann7anyimpl14big_any_policyINS_17flann_algorithm_tEE5cloneEPKPvPS4_,comdat
	.align 2
	.p2align 4,,15
	.weak	_ZN7cvflann7anyimpl14big_any_policyINS_17flann_algorithm_tEE5cloneEPKPvPS4_
	.type	_ZN7cvflann7anyimpl14big_any_policyINS_17flann_algorithm_tEE5cloneEPKPvPS4_, @function
_ZN7cvflann7anyimpl14big_any_policyINS_17flann_algorithm_tEE5cloneEPKPvPS4_:
.LFB14052:
	.cfi_startproc
	pushq	%rbp
	.cfi_def_cfa_offset 16
	.cfi_offset 6, -16
	movl	$4, %edi
	movq	%rsp, %rbp
	.cfi_def_cfa_register 6
	pushq	%r12
	.cfi_offset 12, -24
	movq	%rsi, %r12
	pushq	%rbx
	.cfi_offset 3, -32
	movq	%rdx, %rbx
	call	_Znwm@PLT
	movq	(%r12), %rdx
	movl	(%rdx), %edx
	movq	%rax, (%rbx)
	movl	%edx, (%rax)
	popq	%rbx
	popq	%r12
	popq	%rbp
	.cfi_def_cfa 7, 8
	ret
	.cfi_endproc
.LFE14052:
	.size	_ZN7cvflann7anyimpl14big_any_policyINS_17flann_algorithm_tEE5cloneEPKPvPS4_, .-_ZN7cvflann7anyimpl14big_any_policyINS_17flann_algorithm_tEE5cloneEPKPvPS4_
	.section	.text._ZN7cvflann7anyimpl14big_any_policyINS_17flann_algorithm_tEE15copy_from_valueEPKvPPv,"axG",@progbits,_ZN7cvflann7anyimpl14big_any_policyINS_17flann_algorithm_tEE15copy_from_valueEPKvPPv,comdat
	.align 2
	.p2align 4,,15
	.weak	_ZN7cvflann7anyimpl14big_any_policyINS_17flann_algorithm_tEE15copy_from_valueEPKvPPv
	.type	_ZN7cvflann7anyimpl14big_any_policyINS_17flann_algorithm_tEE15copy_from_valueEPKvPPv, @function
_ZN7cvflann7anyimpl14big_any_policyINS_17flann_algorithm_tEE15copy_from_valueEPKvPPv:
.LFB14051:
	.cfi_startproc
	pushq	%rbp
	.cfi_def_cfa_offset 16
	.cfi_offset 6, -16
	movl	$4, %edi
	movq	%rsp, %rbp
	.cfi_def_cfa_register 6
	pushq	%r12
	.cfi_offset 12, -24
	movq	%rsi, %r12
	pushq	%rbx
	.cfi_offset 3, -32
	movq	%rdx, %rbx
	call	_Znwm@PLT
	movl	(%r12), %edx
	movq	%rax, (%rbx)
	movl	%edx, (%rax)
	popq	%rbx
	popq	%r12
	popq	%rbp
	.cfi_def_cfa 7, 8
	ret
	.cfi_endproc
.LFE14051:
	.size	_ZN7cvflann7anyimpl14big_any_policyINS_17flann_algorithm_tEE15copy_from_valueEPKvPPv, .-_ZN7cvflann7anyimpl14big_any_policyINS_17flann_algorithm_tEE15copy_from_valueEPKvPPv
	.section	.text._ZN7cvflann7anyimpl14big_any_policyINS0_9empty_anyEE5cloneEPKPvPS4_,"axG",@progbits,_ZN7cvflann7anyimpl14big_any_policyINS0_9empty_anyEE5cloneEPKPvPS4_,comdat
	.align 2
	.p2align 4,,15
	.weak	_ZN7cvflann7anyimpl14big_any_policyINS0_9empty_anyEE5cloneEPKPvPS4_
	.type	_ZN7cvflann7anyimpl14big_any_policyINS0_9empty_anyEE5cloneEPKPvPS4_, @function
_ZN7cvflann7anyimpl14big_any_policyINS0_9empty_anyEE5cloneEPKPvPS4_:
.LFB14035:
	.cfi_startproc
	pushq	%rbp
	.cfi_def_cfa_offset 16
	.cfi_offset 6, -16
	movl	$1, %edi
	movq	%rsp, %rbp
	.cfi_def_cfa_register 6
	pushq	%rbx
	.cfi_offset 3, -24
	movq	%rdx, %rbx
	subq	$8, %rsp
	call	_Znwm@PLT
	movq	%rax, (%rbx)
	addq	$8, %rsp
	popq	%rbx
	popq	%rbp
	.cfi_def_cfa 7, 8
	ret
	.cfi_endproc
.LFE14035:
	.size	_ZN7cvflann7anyimpl14big_any_policyINS0_9empty_anyEE5cloneEPKPvPS4_, .-_ZN7cvflann7anyimpl14big_any_policyINS0_9empty_anyEE5cloneEPKPvPS4_
	.section	.text._ZN7cvflann7anyimpl14big_any_policyINS0_9empty_anyEE15copy_from_valueEPKvPPv,"axG",@progbits,_ZN7cvflann7anyimpl14big_any_policyINS0_9empty_anyEE15copy_from_valueEPKvPPv,comdat
	.align 2
	.p2align 4,,15
	.weak	_ZN7cvflann7anyimpl14big_any_policyINS0_9empty_anyEE15copy_from_valueEPKvPPv
	.type	_ZN7cvflann7anyimpl14big_any_policyINS0_9empty_anyEE15copy_from_valueEPKvPPv, @function
_ZN7cvflann7anyimpl14big_any_policyINS0_9empty_anyEE15copy_from_valueEPKvPPv:
.LFB14034:
	.cfi_startproc
	pushq	%rbp
	.cfi_def_cfa_offset 16
	.cfi_offset 6, -16
	movl	$1, %edi
	movq	%rsp, %rbp
	.cfi_def_cfa_register 6
	pushq	%rbx
	.cfi_offset 3, -24
	movq	%rdx, %rbx
	subq	$8, %rsp
	call	_Znwm@PLT
	movq	%rax, (%rbx)
	addq	$8, %rsp
	popq	%rbx
	popq	%rbp
	.cfi_def_cfa 7, 8
	ret
	.cfi_endproc
.LFE14034:
	.size	_ZN7cvflann7anyimpl14big_any_policyINS0_9empty_anyEE15copy_from_valueEPKvPPv, .-_ZN7cvflann7anyimpl14big_any_policyINS0_9empty_anyEE15copy_from_valueEPKvPPv
	.section	.text._ZN7cvflann7anyimpl16small_any_policyIjE5printERSoPKPv,"axG",@progbits,_ZN7cvflann7anyimpl16small_any_policyIjE5printERSoPKPv,comdat
	.align 2
	.p2align 4,,15
	.weak	_ZN7cvflann7anyimpl16small_any_policyIjE5printERSoPKPv
	.type	_ZN7cvflann7anyimpl16small_any_policyIjE5printERSoPKPv, @function
_ZN7cvflann7anyimpl16small_any_policyIjE5printERSoPKPv:
.LFB13882:
	.cfi_startproc
	movq	%rsi, %rdi
	movl	(%rdx), %esi
	jmp	_ZNSo9_M_insertImEERSoT_@PLT
	.cfi_endproc
.LFE13882:
	.size	_ZN7cvflann7anyimpl16small_any_policyIjE5printERSoPKPv, .-_ZN7cvflann7anyimpl16small_any_policyIjE5printERSoPKPv
	.section	.text._ZN7cvflann7anyimpl14big_any_policyIN2cv6StringEE5cloneEPKPvPS5_,"axG",@progbits,_ZN7cvflann7anyimpl14big_any_policyIN2cv6StringEE5cloneEPKPvPS5_,comdat
	.align 2
	.p2align 4,,15
	.weak	_ZN7cvflann7anyimpl14big_any_policyIN2cv6StringEE5cloneEPKPvPS5_
	.type	_ZN7cvflann7anyimpl14big_any_policyIN2cv6StringEE5cloneEPKPvPS5_, @function
_ZN7cvflann7anyimpl14big_any_policyIN2cv6StringEE5cloneEPKPvPS5_:
.LFB14044:
	.cfi_startproc
	pushq	%rbp
	.cfi_def_cfa_offset 16
	.cfi_offset 6, -16
	movl	$16, %edi
	movq	%rsp, %rbp
	.cfi_def_cfa_register 6
	pushq	%r12
	.cfi_offset 12, -24
	movq	%rsi, %r12
	pushq	%rbx
	.cfi_offset 3, -32
	movq	%rdx, %rbx
	call	_Znwm@PLT
	movq	(%r12), %rsi
	movq	(%rsi), %rcx
	movq	8(%rsi), %rdx
	movq	%rcx, (%rax)
	movq	%rdx, 8(%rax)
	testq	%rcx, %rcx
	je	.L88
	lock incl	-4(%rcx)
.L88:
	movq	%rax, (%rbx)
	popq	%rbx
	popq	%r12
	popq	%rbp
	.cfi_def_cfa 7, 8
	ret
	.cfi_endproc
.LFE14044:
	.size	_ZN7cvflann7anyimpl14big_any_policyIN2cv6StringEE5cloneEPKPvPS5_, .-_ZN7cvflann7anyimpl14big_any_policyIN2cv6StringEE5cloneEPKPvPS5_
	.section	.text._ZN7cvflann7anyimpl14big_any_policyIN2cv6StringEE15copy_from_valueEPKvPPv,"axG",@progbits,_ZN7cvflann7anyimpl14big_any_policyIN2cv6StringEE15copy_from_valueEPKvPPv,comdat
	.align 2
	.p2align 4,,15
	.weak	_ZN7cvflann7anyimpl14big_any_policyIN2cv6StringEE15copy_from_valueEPKvPPv
	.type	_ZN7cvflann7anyimpl14big_any_policyIN2cv6StringEE15copy_from_valueEPKvPPv, @function
_ZN7cvflann7anyimpl14big_any_policyIN2cv6StringEE15copy_from_valueEPKvPPv:
.LFB14043:
	.cfi_startproc
	pushq	%rbp
	.cfi_def_cfa_offset 16
	.cfi_offset 6, -16
	movl	$16, %edi
	movq	%rsp, %rbp
	.cfi_def_cfa_register 6
	pushq	%r12
	.cfi_offset 12, -24
	movq	%rdx, %r12
	pushq	%rbx
	.cfi_offset 3, -32
	movq	%rsi, %rbx
	call	_Znwm@PLT
	movq	(%rbx), %rcx
	movq	8(%rbx), %rdx
	movq	%rcx, (%rax)
	movq	%rdx, 8(%rax)
	testq	%rcx, %rcx
	je	.L94
	lock incl	-4(%rcx)
.L94:
	popq	%rbx
	movq	%rax, (%r12)
	popq	%r12
	popq	%rbp
	.cfi_def_cfa 7, 8
	ret
	.cfi_endproc
.LFE14043:
	.size	_ZN7cvflann7anyimpl14big_any_policyIN2cv6StringEE15copy_from_valueEPKvPPv, .-_ZN7cvflann7anyimpl14big_any_policyIN2cv6StringEE15copy_from_valueEPKvPPv
	.section	.text._ZN7cvflann7anyimpl14big_any_policyINS_20flann_centers_init_tEE13static_deleteEPPv,"axG",@progbits,_ZN7cvflann7anyimpl14big_any_policyINS_20flann_centers_init_tEE13static_deleteEPPv,comdat
	.align 2
	.p2align 4,,15
	.weak	_ZN7cvflann7anyimpl14big_any_policyINS_20flann_centers_init_tEE13static_deleteEPPv
	.type	_ZN7cvflann7anyimpl14big_any_policyINS_20flann_centers_init_tEE13static_deleteEPPv, @function
_ZN7cvflann7anyimpl14big_any_policyINS_20flann_centers_init_tEE13static_deleteEPPv:
.LFB14058:
	.cfi_startproc
	pushq	%rbp
	.cfi_def_cfa_offset 16
	.cfi_offset 6, -16
	movq	%rsp, %rbp
	.cfi_def_cfa_register 6
	pushq	%rbx
	.cfi_offset 3, -24
	movq	%rsi, %rbx
	subq	$8, %rsp
	movq	(%rsi), %rdi
	testq	%rdi, %rdi
	je	.L100
	movl	$4, %esi
	call	_ZdlPvm@PLT
.L100:
	movq	$0, (%rbx)
	addq	$8, %rsp
	popq	%rbx
	popq	%rbp
	.cfi_def_cfa 7, 8
	ret
	.cfi_endproc
.LFE14058:
	.size	_ZN7cvflann7anyimpl14big_any_policyINS_20flann_centers_init_tEE13static_deleteEPPv, .-_ZN7cvflann7anyimpl14big_any_policyINS_20flann_centers_init_tEE13static_deleteEPPv
	.section	.text._ZN7cvflann7anyimpl14big_any_policyINS_17flann_algorithm_tEE13static_deleteEPPv,"axG",@progbits,_ZN7cvflann7anyimpl14big_any_policyINS_17flann_algorithm_tEE13static_deleteEPPv,comdat
	.align 2
	.p2align 4,,15
	.weak	_ZN7cvflann7anyimpl14big_any_policyINS_17flann_algorithm_tEE13static_deleteEPPv
	.type	_ZN7cvflann7anyimpl14big_any_policyINS_17flann_algorithm_tEE13static_deleteEPPv, @function
_ZN7cvflann7anyimpl14big_any_policyINS_17flann_algorithm_tEE13static_deleteEPPv:
.LFB14050:
	.cfi_startproc
	pushq	%rbp
	.cfi_def_cfa_offset 16
	.cfi_offset 6, -16
	movq	%rsp, %rbp
	.cfi_def_cfa_register 6
	pushq	%rbx
	.cfi_offset 3, -24
	movq	%rsi, %rbx
	subq	$8, %rsp
	movq	(%rsi), %rdi
	testq	%rdi, %rdi
	je	.L106
	movl	$4, %esi
	call	_ZdlPvm@PLT
.L106:
	movq	$0, (%rbx)
	addq	$8, %rsp
	popq	%rbx
	popq	%rbp
	.cfi_def_cfa 7, 8
	ret
	.cfi_endproc
.LFE14050:
	.size	_ZN7cvflann7anyimpl14big_any_policyINS_17flann_algorithm_tEE13static_deleteEPPv, .-_ZN7cvflann7anyimpl14big_any_policyINS_17flann_algorithm_tEE13static_deleteEPPv
	.section	.text._ZN7cvflann7anyimpl14big_any_policyINS0_9empty_anyEE13static_deleteEPPv,"axG",@progbits,_ZN7cvflann7anyimpl14big_any_policyINS0_9empty_anyEE13static_deleteEPPv,comdat
	.align 2
	.p2align 4,,15
	.weak	_ZN7cvflann7anyimpl14big_any_policyINS0_9empty_anyEE13static_deleteEPPv
	.type	_ZN7cvflann7anyimpl14big_any_policyINS0_9empty_anyEE13static_deleteEPPv, @function
_ZN7cvflann7anyimpl14big_any_policyINS0_9empty_anyEE13static_deleteEPPv:
.LFB14033:
	.cfi_startproc
	pushq	%rbp
	.cfi_def_cfa_offset 16
	.cfi_offset 6, -16
	movq	%rsp, %rbp
	.cfi_def_cfa_register 6
	pushq	%rbx
	.cfi_offset 3, -24
	movq	%rsi, %rbx
	subq	$8, %rsp
	movq	(%rsi), %rdi
	testq	%rdi, %rdi
	je	.L112
	movl	$1, %esi
	call	_ZdlPvm@PLT
.L112:
	movq	$0, (%rbx)
	addq	$8, %rsp
	popq	%rbx
	popq	%rbp
	.cfi_def_cfa 7, 8
	ret
	.cfi_endproc
.LFE14033:
	.size	_ZN7cvflann7anyimpl14big_any_policyINS0_9empty_anyEE13static_deleteEPPv, .-_ZN7cvflann7anyimpl14big_any_policyINS0_9empty_anyEE13static_deleteEPPv
	.section	.text._ZN7cvflann7anyimpl14big_any_policyIN2cv6StringEE13static_deleteEPPv,"axG",@progbits,_ZN7cvflann7anyimpl14big_any_policyIN2cv6StringEE13static_deleteEPPv,comdat
	.align 2
	.p2align 4,,15
	.weak	_ZN7cvflann7anyimpl14big_any_policyIN2cv6StringEE13static_deleteEPPv
	.type	_ZN7cvflann7anyimpl14big_any_policyIN2cv6StringEE13static_deleteEPPv, @function
_ZN7cvflann7anyimpl14big_any_policyIN2cv6StringEE13static_deleteEPPv:
.LFB14042:
	.cfi_startproc
	.cfi_personality 0x9b,DW.ref.__gxx_personality_v0
	.cfi_lsda 0x1b,.LLSDA14042
	pushq	%rbp
	.cfi_def_cfa_offset 16
	.cfi_offset 6, -16
	movq	%rsp, %rbp
	.cfi_def_cfa_register 6
	pushq	%r12
	.cfi_offset 12, -24
	movq	%rsi, %r12
	pushq	%rbx
	.cfi_offset 3, -32
	movq	(%rsi), %rbx
	testq	%rbx, %rbx
	je	.L118
	movq	%rbx, %rdi
	call	_ZN2cv6String10deallocateEv@PLT
	movl	$16, %esi
	movq	%rbx, %rdi
	call	_ZdlPvm@PLT
.L118:
	popq	%rbx
	movq	$0, (%r12)
	popq	%r12
	popq	%rbp
	.cfi_def_cfa 7, 8
	ret
	.cfi_endproc
.LFE14042:
	.globl	__gxx_personality_v0
	.section	.gcc_except_table._ZN7cvflann7anyimpl14big_any_policyIN2cv6StringEE13static_deleteEPPv,"aG",@progbits,_ZN7cvflann7anyimpl14big_any_policyIN2cv6StringEE13static_deleteEPPv,comdat
.LLSDA14042:
	.byte	0xff
	.byte	0xff
	.byte	0x1
	.uleb128 .LLSDACSE14042-.LLSDACSB14042
.LLSDACSB14042:
.LLSDACSE14042:
	.section	.text._ZN7cvflann7anyimpl14big_any_policyIN2cv6StringEE13static_deleteEPPv,"axG",@progbits,_ZN7cvflann7anyimpl14big_any_policyIN2cv6StringEE13static_deleteEPPv,comdat
	.size	_ZN7cvflann7anyimpl14big_any_policyIN2cv6StringEE13static_deleteEPPv, .-_ZN7cvflann7anyimpl14big_any_policyIN2cv6StringEE13static_deleteEPPv
	.section	.text._ZN7cvflann7anyimpl14big_any_policyINS0_9empty_anyEED0Ev,"axG",@progbits,_ZN7cvflann7anyimpl14big_any_policyINS0_9empty_anyEED5Ev,comdat
	.align 2
	.p2align 4,,15
	.weak	_ZN7cvflann7anyimpl14big_any_policyINS0_9empty_anyEED0Ev
	.type	_ZN7cvflann7anyimpl14big_any_policyINS0_9empty_anyEED0Ev, @function
_ZN7cvflann7anyimpl14big_any_policyINS0_9empty_anyEED0Ev:
.LFB10558:
	.cfi_startproc
	movl	$8, %esi
	jmp	_ZdlPvm@PLT
	.cfi_endproc
.LFE10558:
	.size	_ZN7cvflann7anyimpl14big_any_policyINS0_9empty_anyEED0Ev, .-_ZN7cvflann7anyimpl14big_any_policyINS0_9empty_anyEED0Ev
	.section	.text._ZN7cvflann7anyimpl16small_any_policyIPKcED0Ev,"axG",@progbits,_ZN7cvflann7anyimpl16small_any_policyIPKcED5Ev,comdat
	.align 2
	.p2align 4,,15
	.weak	_ZN7cvflann7anyimpl16small_any_policyIPKcED0Ev
	.type	_ZN7cvflann7anyimpl16small_any_policyIPKcED0Ev, @function
_ZN7cvflann7anyimpl16small_any_policyIPKcED0Ev:
.LFB11494:
	.cfi_startproc
	movl	$8, %esi
	jmp	_ZdlPvm@PLT
	.cfi_endproc
.LFE11494:
	.size	_ZN7cvflann7anyimpl16small_any_policyIPKcED0Ev, .-_ZN7cvflann7anyimpl16small_any_policyIPKcED0Ev
	.section	.text._ZN7cvflann7anyimpl16small_any_policyIiED0Ev,"axG",@progbits,_ZN7cvflann7anyimpl16small_any_policyIiED5Ev,comdat
	.align 2
	.p2align 4,,15
	.weak	_ZN7cvflann7anyimpl16small_any_policyIiED0Ev
	.type	_ZN7cvflann7anyimpl16small_any_policyIiED0Ev, @function
_ZN7cvflann7anyimpl16small_any_policyIiED0Ev:
.LFB12191:
	.cfi_startproc
	movl	$8, %esi
	jmp	_ZdlPvm@PLT
	.cfi_endproc
.LFE12191:
	.size	_ZN7cvflann7anyimpl16small_any_policyIiED0Ev, .-_ZN7cvflann7anyimpl16small_any_policyIiED0Ev
	.section	.text._ZN7cvflann7anyimpl16small_any_policyIfED0Ev,"axG",@progbits,_ZN7cvflann7anyimpl16small_any_policyIfED5Ev,comdat
	.align 2
	.p2align 4,,15
	.weak	_ZN7cvflann7anyimpl16small_any_policyIfED0Ev
	.type	_ZN7cvflann7anyimpl16small_any_policyIfED0Ev, @function
_ZN7cvflann7anyimpl16small_any_policyIfED0Ev:
.LFB12206:
	.cfi_startproc
	movl	$8, %esi
	jmp	_ZdlPvm@PLT
	.cfi_endproc
.LFE12206:
	.size	_ZN7cvflann7anyimpl16small_any_policyIfED0Ev, .-_ZN7cvflann7anyimpl16small_any_policyIfED0Ev
	.section	.text._ZN7cvflann7anyimpl16small_any_policyIbED0Ev,"axG",@progbits,_ZN7cvflann7anyimpl16small_any_policyIbED5Ev,comdat
	.align 2
	.p2align 4,,15
	.weak	_ZN7cvflann7anyimpl16small_any_policyIbED0Ev
	.type	_ZN7cvflann7anyimpl16small_any_policyIbED0Ev, @function
_ZN7cvflann7anyimpl16small_any_policyIbED0Ev:
.LFB12221:
	.cfi_startproc
	movl	$8, %esi
	jmp	_ZdlPvm@PLT
	.cfi_endproc
.LFE12221:
	.size	_ZN7cvflann7anyimpl16small_any_policyIbED0Ev, .-_ZN7cvflann7anyimpl16small_any_policyIbED0Ev
	.section	.text._ZN7cvflann7anyimpl14big_any_policyINS_17flann_algorithm_tEED0Ev,"axG",@progbits,_ZN7cvflann7anyimpl14big_any_policyINS_17flann_algorithm_tEED5Ev,comdat
	.align 2
	.p2align 4,,15
	.weak	_ZN7cvflann7anyimpl14big_any_policyINS_17flann_algorithm_tEED0Ev
	.type	_ZN7cvflann7anyimpl14big_any_policyINS_17flann_algorithm_tEED0Ev, @function
_ZN7cvflann7anyimpl14big_any_policyINS_17flann_algorithm_tEED0Ev:
.LFB12261:
	.cfi_startproc
	movl	$8, %esi
	jmp	_ZdlPvm@PLT
	.cfi_endproc
.LFE12261:
	.size	_ZN7cvflann7anyimpl14big_any_policyINS_17flann_algorithm_tEED0Ev, .-_ZN7cvflann7anyimpl14big_any_policyINS_17flann_algorithm_tEED0Ev
	.section	.text._ZN7cvflann7anyimpl14big_any_policyINS_20flann_centers_init_tEED0Ev,"axG",@progbits,_ZN7cvflann7anyimpl14big_any_policyINS_20flann_centers_init_tEED5Ev,comdat
	.align 2
	.p2align 4,,15
	.weak	_ZN7cvflann7anyimpl14big_any_policyINS_20flann_centers_init_tEED0Ev
	.type	_ZN7cvflann7anyimpl14big_any_policyINS_20flann_centers_init_tEED0Ev, @function
_ZN7cvflann7anyimpl14big_any_policyINS_20flann_centers_init_tEED0Ev:
.LFB12276:
	.cfi_startproc
	movl	$8, %esi
	jmp	_ZdlPvm@PLT
	.cfi_endproc
.LFE12276:
	.size	_ZN7cvflann7anyimpl14big_any_policyINS_20flann_centers_init_tEED0Ev, .-_ZN7cvflann7anyimpl14big_any_policyINS_20flann_centers_init_tEED0Ev
	.section	.text._ZN7cvflann7anyimpl16small_any_policyIjED0Ev,"axG",@progbits,_ZN7cvflann7anyimpl16small_any_policyIjED5Ev,comdat
	.align 2
	.p2align 4,,15
	.weak	_ZN7cvflann7anyimpl16small_any_policyIjED0Ev
	.type	_ZN7cvflann7anyimpl16small_any_policyIjED0Ev, @function
_ZN7cvflann7anyimpl16small_any_policyIjED0Ev:
.LFB12352:
	.cfi_startproc
	movl	$8, %esi
	jmp	_ZdlPvm@PLT
	.cfi_endproc
.LFE12352:
	.size	_ZN7cvflann7anyimpl16small_any_policyIjED0Ev, .-_ZN7cvflann7anyimpl16small_any_policyIjED0Ev
	.section	.text._ZN7cvflann7anyimpl14big_any_policyIN2cv6StringEED0Ev,"axG",@progbits,_ZN7cvflann7anyimpl14big_any_policyIN2cv6StringEED5Ev,comdat
	.align 2
	.p2align 4,,15
	.weak	_ZN7cvflann7anyimpl14big_any_policyIN2cv6StringEED0Ev
	.type	_ZN7cvflann7anyimpl14big_any_policyIN2cv6StringEED0Ev, @function
_ZN7cvflann7anyimpl14big_any_policyIN2cv6StringEED0Ev:
.LFB12367:
	.cfi_startproc
	movl	$8, %esi
	jmp	_ZdlPvm@PLT
	.cfi_endproc
.LFE12367:
	.size	_ZN7cvflann7anyimpl14big_any_policyIN2cv6StringEED0Ev, .-_ZN7cvflann7anyimpl14big_any_policyIN2cv6StringEED0Ev
	.section	.text._ZN7cvflann7anyimpl16small_any_policyIbE5printERSoPKPv,"axG",@progbits,_ZN7cvflann7anyimpl16small_any_policyIbE5printERSoPKPv,comdat
	.align 2
	.p2align 4,,15
	.weak	_ZN7cvflann7anyimpl16small_any_policyIbE5printERSoPKPv
	.type	_ZN7cvflann7anyimpl16small_any_policyIbE5printERSoPKPv, @function
_ZN7cvflann7anyimpl16small_any_policyIbE5printERSoPKPv:
.LFB13891:
	.cfi_startproc
	movq	%rsi, %rdi
	movzbl	(%rdx), %esi
	jmp	_ZNSo9_M_insertIbEERSoT_@PLT
	.cfi_endproc
.LFE13891:
	.size	_ZN7cvflann7anyimpl16small_any_policyIbE5printERSoPKPv, .-_ZN7cvflann7anyimpl16small_any_policyIbE5printERSoPKPv
	.section	.text._ZN7cvflann7anyimpl16small_any_policyIfE5printERSoPKPv,"axG",@progbits,_ZN7cvflann7anyimpl16small_any_policyIfE5printERSoPKPv,comdat
	.align 2
	.p2align 4,,15
	.weak	_ZN7cvflann7anyimpl16small_any_policyIfE5printERSoPKPv
	.type	_ZN7cvflann7anyimpl16small_any_policyIfE5printERSoPKPv, @function
_ZN7cvflann7anyimpl16small_any_policyIfE5printERSoPKPv:
.LFB13900:
	.cfi_startproc
	vxorpd	%xmm0, %xmm0, %xmm0
	movq	%rsi, %rdi
	vcvtss2sd	(%rdx), %xmm0, %xmm0
	jmp	_ZNSo9_M_insertIdEERSoT_@PLT
	.cfi_endproc
.LFE13900:
	.size	_ZN7cvflann7anyimpl16small_any_policyIfE5printERSoPKPv, .-_ZN7cvflann7anyimpl16small_any_policyIfE5printERSoPKPv
	.section	.text._ZN7cvflann7anyimpl14big_any_policyIN2cv6StringEE4moveEPKPvPS5_,"axG",@progbits,_ZN7cvflann7anyimpl14big_any_policyIN2cv6StringEE4moveEPKPvPS5_,comdat
	.align 2
	.p2align 4,,15
	.weak	_ZN7cvflann7anyimpl14big_any_policyIN2cv6StringEE4moveEPKPvPS5_
	.type	_ZN7cvflann7anyimpl14big_any_policyIN2cv6StringEE4moveEPKPvPS5_, @function
_ZN7cvflann7anyimpl14big_any_policyIN2cv6StringEE4moveEPKPvPS5_:
.LFB14045:
	.cfi_startproc
	.cfi_personality 0x9b,DW.ref.__gxx_personality_v0
	.cfi_lsda 0x1b,.LLSDA14045
	pushq	%rbp
	.cfi_def_cfa_offset 16
	.cfi_offset 6, -16
	movq	(%rdx), %rdi
	movq	%rsp, %rbp
	.cfi_def_cfa_register 6
	pushq	%r12
	.cfi_offset 12, -24
	movq	%rsi, %r12
	pushq	%rbx
	.cfi_offset 3, -32
	movq	%rdx, %rbx
	call	_ZN2cv6String10deallocateEv@PLT
	movq	(%r12), %r12
	movq	(%rbx), %rbx
	cmpq	%rbx, %r12
	je	.L140
	movq	%rbx, %rdi
.LEHB0:
	call	_ZN2cv6String10deallocateEv@PLT
.LEHE0:
	movq	(%r12), %rax
	testq	%rax, %rax
	je	.L136
	lock incl	-4(%rax)
	movq	(%r12), %rax
.L136:
	movq	%rax, (%rbx)
	movq	8(%r12), %rax
	movq	%rax, 8(%rbx)
.L140:
	popq	%rbx
	popq	%r12
	popq	%rbp
	.cfi_def_cfa 7, 8
	ret
	.cfi_endproc
.LFE14045:
	.section	.gcc_except_table._ZN7cvflann7anyimpl14big_any_policyIN2cv6StringEE4moveEPKPvPS5_,"aG",@progbits,_ZN7cvflann7anyimpl14big_any_policyIN2cv6StringEE4moveEPKPvPS5_,comdat
.LLSDA14045:
	.byte	0xff
	.byte	0xff
	.byte	0x1
	.uleb128 .LLSDACSE14045-.LLSDACSB14045
.LLSDACSB14045:
	.uleb128 .LEHB0-.LFB14045
	.uleb128 .LEHE0-.LEHB0
	.uleb128 0
	.uleb128 0
.LLSDACSE14045:
	.section	.text._ZN7cvflann7anyimpl14big_any_policyIN2cv6StringEE4moveEPKPvPS5_,"axG",@progbits,_ZN7cvflann7anyimpl14big_any_policyIN2cv6StringEE4moveEPKPvPS5_,comdat
	.size	_ZN7cvflann7anyimpl14big_any_policyIN2cv6StringEE4moveEPKPvPS5_, .-_ZN7cvflann7anyimpl14big_any_policyIN2cv6StringEE4moveEPKPvPS5_
	.section	.rodata._ZN7cvflann7anyimpl14big_any_policyINS0_9empty_anyEE5printERSoPKPv.str1.1,"aMS",@progbits,1
.LC0:
	.string	"[empty_any]"
	.section	.text._ZN7cvflann7anyimpl14big_any_policyINS0_9empty_anyEE5printERSoPKPv,"axG",@progbits,_ZN7cvflann7anyimpl14big_any_policyINS0_9empty_anyEE5printERSoPKPv,comdat
	.align 2
	.p2align 4,,15
	.weak	_ZN7cvflann7anyimpl14big_any_policyINS0_9empty_anyEE5printERSoPKPv
	.type	_ZN7cvflann7anyimpl14big_any_policyINS0_9empty_anyEE5printERSoPKPv, @function
_ZN7cvflann7anyimpl14big_any_policyINS0_9empty_anyEE5printERSoPKPv:
.LFB14041:
	.cfi_startproc
	movq	%rsi, %rdi
	movl	$11, %edx
	leaq	.LC0(%rip), %rsi
	jmp	_ZSt16__ostream_insertIcSt11char_traitsIcEERSt13basic_ostreamIT_T0_ES6_PKS3_l@PLT
	.cfi_endproc
.LFE14041:
	.size	_ZN7cvflann7anyimpl14big_any_policyINS0_9empty_anyEE5printERSoPKPv, .-_ZN7cvflann7anyimpl14big_any_policyINS0_9empty_anyEE5printERSoPKPv
	.section	.text._ZN7cvflann7anyimpl16small_any_policyIPKcE5printERSoPKPv,"axG",@progbits,_ZN7cvflann7anyimpl16small_any_policyIPKcE5printERSoPKPv,comdat
	.align 2
	.p2align 4,,15
	.weak	_ZN7cvflann7anyimpl16small_any_policyIPKcE5printERSoPKPv
	.type	_ZN7cvflann7anyimpl16small_any_policyIPKcE5printERSoPKPv, @function
_ZN7cvflann7anyimpl16small_any_policyIPKcE5printERSoPKPv:
.LFB13920:
	.cfi_startproc
	pushq	%rbp
	.cfi_def_cfa_offset 16
	.cfi_offset 6, -16
	movq	%rsp, %rbp
	.cfi_def_cfa_register 6
	pushq	%r12
	pushq	%rbx
	.cfi_offset 12, -24
	.cfi_offset 3, -32
	movq	(%rdx), %r12
	testq	%r12, %r12
	je	.L146
	movq	%rsi, %rbx
	movq	%r12, %rdi
	call	strlen@PLT
	movq	%rbx, %rdi
	popq	%rbx
	movq	%r12, %rsi
	popq	%r12
	movq	%rax, %rdx
	popq	%rbp
	.cfi_remember_state
	.cfi_def_cfa 7, 8
	jmp	_ZSt16__ostream_insertIcSt11char_traitsIcEERSt13basic_ostreamIT_T0_ES6_PKS3_l@PLT
	.p2align 4,,10
	.p2align 3
.L146:
	.cfi_restore_state
	movq	(%rsi), %rax
	popq	%rbx
	movq	-24(%rax), %rdi
	popq	%r12
	addq	%rsi, %rdi
	movl	32(%rdi), %esi
	popq	%rbp
	.cfi_def_cfa 7, 8
	orl	$1, %esi
	jmp	_ZNSt9basic_iosIcSt11char_traitsIcEE5clearESt12_Ios_Iostate@PLT
	.cfi_endproc
.LFE13920:
	.size	_ZN7cvflann7anyimpl16small_any_policyIPKcE5printERSoPKPv, .-_ZN7cvflann7anyimpl16small_any_policyIPKcE5printERSoPKPv
	.section	.rodata._ZN7cvflann7anyimpl14big_any_policyIN2cv6StringEE5printERSoPKPv.str1.1,"aMS",@progbits,1
.LC1:
	.string	""
	.section	.text._ZN7cvflann7anyimpl14big_any_policyIN2cv6StringEE5printERSoPKPv,"axG",@progbits,_ZN7cvflann7anyimpl14big_any_policyIN2cv6StringEE5printERSoPKPv,comdat
	.align 2
	.p2align 4,,15
	.weak	_ZN7cvflann7anyimpl14big_any_policyIN2cv6StringEE5printERSoPKPv
	.type	_ZN7cvflann7anyimpl14big_any_policyIN2cv6StringEE5printERSoPKPv, @function
_ZN7cvflann7anyimpl14big_any_policyIN2cv6StringEE5printERSoPKPv:
.LFB7707:
	.cfi_startproc
	pushq	%rbp
	.cfi_def_cfa_offset 16
	.cfi_offset 6, -16
	movq	%rsp, %rbp
	.cfi_def_cfa_register 6
	pushq	%r12
	.cfi_offset 12, -24
	movq	%rsi, %r12
	pushq	%rbx
	.cfi_offset 3, -32
	movq	(%rdx), %rax
	movq	(%rax), %rbx
	testq	%rbx, %rbx
	je	.L149
	movq	%rbx, %rdi
	call	strlen@PLT
	movq	%rbx, %rsi
	popq	%rbx
	movq	%r12, %rdi
	popq	%r12
	movq	%rax, %rdx
	popq	%rbp
	.cfi_remember_state
	.cfi_def_cfa 7, 8
	jmp	_ZSt16__ostream_insertIcSt11char_traitsIcEERSt13basic_ostreamIT_T0_ES6_PKS3_l@PLT
	.p2align 4,,10
	.p2align 3
.L149:
	.cfi_restore_state
	leaq	.LC1(%rip), %rbx
	movq	%rbx, %rsi
	popq	%rbx
	movq	%r12, %rdi
	popq	%r12
	xorl	%edx, %edx
	popq	%rbp
	.cfi_def_cfa 7, 8
	jmp	_ZSt16__ostream_insertIcSt11char_traitsIcEERSt13basic_ostreamIT_T0_ES6_PKS3_l@PLT
	.cfi_endproc
.LFE7707:
	.size	_ZN7cvflann7anyimpl14big_any_policyIN2cv6StringEE5printERSoPKPv, .-_ZN7cvflann7anyimpl14big_any_policyIN2cv6StringEE5printERSoPKPv
	.section	.rodata.str1.1,"aMS",@progbits,1
.LC2:
	.string	"Hi!"
	.text
	.p2align 4,,15
	.type	main._omp_fn.0, @function
main._omp_fn.0:
.LFB14095:
	.cfi_startproc
	.cfi_personality 0x9b,DW.ref.__gxx_personality_v0
	.cfi_lsda 0x1b,.LLSDA14095
	pushq	%rbp
	.cfi_def_cfa_offset 16
	.cfi_offset 6, -16
	movl	$3, %edx
	leaq	.LC2(%rip), %rsi
	movq	%rsp, %rbp
	.cfi_def_cfa_register 6
	pushq	%rbx
	leaq	_ZSt4cout(%rip), %rdi
	subq	$8, %rsp
	.cfi_offset 3, -24
	call	_ZSt16__ostream_insertIcSt11char_traitsIcEERSt13basic_ostreamIT_T0_ES6_PKS3_l@PLT
	movq	_ZSt4cout(%rip), %rax
	leaq	_ZSt4cout(%rip), %rdx
	movq	-24(%rax), %rax
	movq	240(%rdx,%rax), %rbx
	testq	%rbx, %rbx
	je	.L157
	cmpb	$0, 56(%rbx)
	je	.L153
	movsbl	67(%rbx), %esi
.L154:
	leaq	_ZSt4cout(%rip), %rdi
	call	_ZNSo3putEc@PLT
	addq	$8, %rsp
	popq	%rbx
	movq	%rax, %rdi
	popq	%rbp
	.cfi_remember_state
	.cfi_def_cfa 7, 8
	jmp	_ZNSo5flushEv@PLT
	.p2align 4,,10
	.p2align 3
.L153:
	.cfi_restore_state
	movq	%rbx, %rdi
	call	_ZNKSt5ctypeIcE13_M_widen_initEv@PLT
	movq	(%rbx), %rax
	leaq	_ZNKSt5ctypeIcE8do_widenEc(%rip), %rdx
	movq	48(%rax), %rax
	movl	$10, %esi
	cmpq	%rdx, %rax
	je	.L154
	movq	%rbx, %rdi
	call	*%rax
	movsbl	%al, %esi
	jmp	.L154
.L157:
	call	_ZSt16__throw_bad_castv@PLT
	.cfi_endproc
.LFE14095:
	.section	.gcc_except_table,"a",@progbits
.LLSDA14095:
	.byte	0xff
	.byte	0xff
	.byte	0x1
	.uleb128 .LLSDACSE14095-.LLSDACSB14095
.LLSDACSB14095:
.LLSDACSE14095:
	.text
	.size	main._omp_fn.0, .-main._omp_fn.0
	.section	.text._ZNSt11char_traitsIcE6lengthEPKc,"axG",@progbits,_ZNSt11char_traitsIcE6lengthEPKc,comdat
	.p2align 4,,15
	.weak	_ZNSt11char_traitsIcE6lengthEPKc
	.type	_ZNSt11char_traitsIcE6lengthEPKc, @function
_ZNSt11char_traitsIcE6lengthEPKc:
.LFB403:
	.cfi_startproc
	jmp	strlen@PLT
	.cfi_endproc
.LFE403:
	.size	_ZNSt11char_traitsIcE6lengthEPKc, .-_ZNSt11char_traitsIcE6lengthEPKc
	.section	.text._ZN2cv3MatD2Ev,"axG",@progbits,_ZN2cv3MatD5Ev,comdat
	.align 2
	.p2align 4,,15
	.weak	_ZN2cv3MatD2Ev
	.type	_ZN2cv3MatD2Ev, @function
_ZN2cv3MatD2Ev:
.LFB5135:
	.cfi_startproc
	.cfi_personality 0x9b,DW.ref.__gxx_personality_v0
	.cfi_lsda 0x1b,.LLSDA5135
	pushq	%rbp
	.cfi_def_cfa_offset 16
	.cfi_offset 6, -16
	movq	%rsp, %rbp
	.cfi_def_cfa_register 6
	pushq	%rbx
	.cfi_offset 3, -24
	movq	%rdi, %rbx
	subq	$8, %rsp
	movq	56(%rdi), %rax
	testq	%rax, %rax
	je	.L161
	lock decl	20(%rax)
	je	.L169
.L161:
	movl	4(%rbx), %eax
	movq	$0, 56(%rbx)
	movq	$0, 16(%rbx)
	movq	$0, 40(%rbx)
	movq	$0, 32(%rbx)
	movq	$0, 24(%rbx)
	testl	%eax, %eax
	jle	.L163
	movq	64(%rbx), %rdx
	xorl	%eax, %eax
	.p2align 4,,10
	.p2align 3
.L164:
	movl	$0, (%rdx,%rax,4)
	incq	%rax
	cmpl	%eax, 4(%rbx)
	jg	.L164
.L163:
	movq	72(%rbx), %rdi
	addq	$80, %rbx
	cmpq	%rbx, %rdi
	je	.L167
	addq	$8, %rsp
	popq	%rbx
	popq	%rbp
	.cfi_remember_state
	.cfi_def_cfa 7, 8
	jmp	_ZN2cv8fastFreeEPv@PLT
	.p2align 4,,10
	.p2align 3
.L167:
	.cfi_restore_state
	addq	$8, %rsp
	popq	%rbx
	popq	%rbp
	.cfi_remember_state
	.cfi_def_cfa 7, 8
	ret
	.p2align 4,,10
	.p2align 3
.L169:
	.cfi_restore_state
	call	_ZN2cv3Mat10deallocateEv@PLT
	jmp	.L161
	.cfi_endproc
.LFE5135:
	.section	.gcc_except_table
.LLSDA5135:
	.byte	0xff
	.byte	0xff
	.byte	0x1
	.uleb128 .LLSDACSE5135-.LLSDACSB5135
.LLSDACSB5135:
.LLSDACSE5135:
	.section	.text._ZN2cv3MatD2Ev,"axG",@progbits,_ZN2cv3MatD5Ev,comdat
	.size	_ZN2cv3MatD2Ev, .-_ZN2cv3MatD2Ev
	.weak	_ZN2cv3MatD1Ev
	.set	_ZN2cv3MatD1Ev,_ZN2cv3MatD2Ev
	.section	.text._ZNSt6vectorIS_IS_ItSaItEESaIS1_EESaIS3_EED2Ev,"axG",@progbits,_ZNSt6vectorIS_IS_ItSaItEESaIS1_EESaIS3_EED5Ev,comdat
	.align 2
	.p2align 4,,15
	.weak	_ZNSt6vectorIS_IS_ItSaItEESaIS1_EESaIS3_EED2Ev
	.type	_ZNSt6vectorIS_IS_ItSaItEESaIS1_EESaIS3_EED2Ev, @function
_ZNSt6vectorIS_IS_ItSaItEESaIS1_EESaIS3_EED2Ev:
.LFB11127:
	.cfi_startproc
	pushq	%rbp
	.cfi_def_cfa_offset 16
	.cfi_offset 6, -16
	movq	%rsp, %rbp
	.cfi_def_cfa_register 6
	pushq	%r15
	.cfi_offset 15, -24
	movq	%rdi, %r15
	pushq	%r14
	pushq	%r13
	pushq	%r12
	pushq	%rbx
	subq	$8, %rsp
	.cfi_offset 14, -32
	.cfi_offset 13, -40
	.cfi_offset 12, -48
	.cfi_offset 3, -56
	movq	8(%rdi), %r14
	movq	(%rdi), %r12
	cmpq	%r12, %r14
	je	.L171
	.p2align 4,,10
	.p2align 3
.L172:
	movq	8(%r12), %r13
	movq	(%r12), %rbx
	cmpq	%rbx, %r13
	je	.L173
	.p2align 4,,10
	.p2align 3
.L174:
	movq	(%rbx), %rdi
	testq	%rdi, %rdi
	je	.L175
	addq	$24, %rbx
	call	_ZdlPv@PLT
	cmpq	%r13, %rbx
	jne	.L174
.L176:
	movq	(%r12), %rbx
.L173:
	testq	%rbx, %rbx
	je	.L178
	movq	%rbx, %rdi
	addq	$24, %r12
	call	_ZdlPv@PLT
	cmpq	%r12, %r14
	jne	.L172
.L179:
	movq	(%r15), %r12
.L171:
	testq	%r12, %r12
	je	.L182
	addq	$8, %rsp
	popq	%rbx
	movq	%r12, %rdi
	popq	%r12
	popq	%r13
	popq	%r14
	popq	%r15
	popq	%rbp
	.cfi_remember_state
	.cfi_def_cfa 7, 8
	jmp	_ZdlPv@PLT
	.p2align 4,,10
	.p2align 3
.L175:
	.cfi_restore_state
	addq	$24, %rbx
	cmpq	%rbx, %r13
	jne	.L174
	jmp	.L176
	.p2align 4,,10
	.p2align 3
.L178:
	addq	$24, %r12
	cmpq	%r12, %r14
	jne	.L172
	jmp	.L179
	.p2align 4,,10
	.p2align 3
.L182:
	addq	$8, %rsp
	popq	%rbx
	popq	%r12
	popq	%r13
	popq	%r14
	popq	%r15
	popq	%rbp
	.cfi_def_cfa 7, 8
	ret
	.cfi_endproc
.LFE11127:
	.size	_ZNSt6vectorIS_IS_ItSaItEESaIS1_EESaIS3_EED2Ev, .-_ZNSt6vectorIS_IS_ItSaItEESaIS1_EESaIS3_EED2Ev
	.weak	_ZNSt6vectorIS_IS_ItSaItEESaIS1_EESaIS3_EED1Ev
	.set	_ZNSt6vectorIS_IS_ItSaItEESaIS1_EESaIS3_EED1Ev,_ZNSt6vectorIS_IS_ItSaItEESaIS1_EESaIS3_EED2Ev
	.section	.rodata._ZNSt6vectorIS_ItSaItEESaIS1_EE17_M_default_appendEm.str1.1,"aMS",@progbits,1
.LC3:
	.string	"vector::_M_default_append"
	.section	.text._ZNSt6vectorIS_ItSaItEESaIS1_EE17_M_default_appendEm,"axG",@progbits,_ZNSt6vectorIS_ItSaItEESaIS1_EE17_M_default_appendEm,comdat
	.align 2
	.p2align 4,,15
	.weak	_ZNSt6vectorIS_ItSaItEESaIS1_EE17_M_default_appendEm
	.type	_ZNSt6vectorIS_ItSaItEESaIS1_EE17_M_default_appendEm, @function
_ZNSt6vectorIS_ItSaItEESaIS1_EE17_M_default_appendEm:
.LFB11922:
	.cfi_startproc
	testq	%rsi, %rsi
	je	.L284
	movq	8(%rdi), %r8
	movq	16(%rdi), %rax
	movabsq	$-6148914691236517205, %rdx
	subq	%r8, %rax
	sarq	$3, %rax
	imulq	%rdx, %rax
	cmpq	%rax, %rsi
	ja	.L186
	leaq	-1(%rsi), %rax
	cmpq	$11, %rax
	jbe	.L202
	leaq	-4(%rsi), %rcx
	shrq	$2, %rcx
	incq	%rcx
	movq	%r8, %rax
	xorl	%edx, %edx
	vpxor	%xmm0, %xmm0, %xmm0
	.p2align 4,,10
	.p2align 3
.L188:
	incq	%rdx
	vmovdqu	%ymm0, (%rax)
	vmovdqu	%ymm0, 32(%rax)
	vmovdqu	%ymm0, 64(%rax)
	addq	$96, %rax
	cmpq	%rdx, %rcx
	ja	.L188
	leaq	0(,%rcx,4), %r9
	leaq	(%r9,%rcx,8), %rax
	movq	%rsi, %rdx
	leaq	(%r8,%rax,8), %rax
	subq	%r9, %rdx
	cmpq	%r9, %rsi
	je	.L286
	vzeroupper
.L187:
	movq	$0, (%rax)
	movq	$0, 8(%rax)
	movq	$0, 16(%rax)
	cmpq	$1, %rdx
	je	.L189
	movq	$0, 24(%rax)
	movq	$0, 32(%rax)
	movq	$0, 40(%rax)
	cmpq	$2, %rdx
	je	.L189
	movq	$0, 48(%rax)
	movq	$0, 56(%rax)
	movq	$0, 64(%rax)
	cmpq	$3, %rdx
	je	.L189
	movq	$0, 72(%rax)
	movq	$0, 80(%rax)
	movq	$0, 88(%rax)
	cmpq	$4, %rdx
	je	.L189
	movq	$0, 96(%rax)
	movq	$0, 104(%rax)
	movq	$0, 112(%rax)
	cmpq	$5, %rdx
	je	.L189
	movq	$0, 120(%rax)
	movq	$0, 128(%rax)
	movq	$0, 136(%rax)
	cmpq	$6, %rdx
	je	.L189
	movq	$0, 144(%rax)
	movq	$0, 152(%rax)
	movq	$0, 160(%rax)
	cmpq	$7, %rdx
	je	.L189
	movq	$0, 168(%rax)
	movq	$0, 176(%rax)
	movq	$0, 184(%rax)
	cmpq	$8, %rdx
	je	.L189
	movq	$0, 192(%rax)
	movq	$0, 200(%rax)
	movq	$0, 208(%rax)
	cmpq	$9, %rdx
	je	.L189
	movq	$0, 216(%rax)
	movq	$0, 224(%rax)
	movq	$0, 232(%rax)
	cmpq	$10, %rdx
	je	.L189
	movq	$0, 240(%rax)
	movq	$0, 248(%rax)
	movq	$0, 256(%rax)
	cmpq	$11, %rdx
	je	.L189
	movq	$0, 264(%rax)
	movq	$0, 272(%rax)
	movq	$0, 280(%rax)
.L189:
	leaq	(%rsi,%rsi,2), %rax
	leaq	(%r8,%rax,8), %rax
	movq	%rax, 8(%rdi)
	ret
	.p2align 4,,10
	.p2align 3
.L284:
	ret
	.p2align 4,,10
	.p2align 3
.L186:
	pushq	%rbp
	.cfi_def_cfa_offset 16
	.cfi_offset 6, -16
	movq	%rsp, %rbp
	.cfi_def_cfa_register 6
	pushq	%r15
	pushq	%r14
	.cfi_offset 15, -24
	.cfi_offset 14, -32
	movq	%r8, %r14
	pushq	%r13
	pushq	%r12
	.cfi_offset 13, -40
	.cfi_offset 12, -48
	movq	%rdi, %r12
	pushq	%rbx
	.cfi_offset 3, -56
	movq	%rsi, %rbx
	subq	$24, %rsp
	subq	(%rdi), %r14
	movq	%r14, %r13
	sarq	$3, %r13
	imulq	%rdx, %r13
	movabsq	$768614336404564650, %rdx
	movq	%rdx, %rax
	subq	%r13, %rax
	cmpq	%rsi, %rax
	jb	.L287
	cmpq	%r13, %rsi
	movq	%r13, %rax
	cmovnb	%rsi, %rax
	addq	%r13, %rax
	cmpq	%rdx, %rax
	cmova	%rdx, %rax
	leaq	(%rax,%rax,2), %r15
	leaq	0(,%r15,8), %rax
	movq	%rax, %rdi
	movq	%rax, (%rsp)
	call	_Znwm@PLT
	movq	%rax, 8(%rsp)
	leaq	(%rax,%r14), %rdx
	leaq	-1(%rbx), %rax
	cmpq	$11, %rax
	jbe	.L204
	leaq	-4(%rbx), %rsi
	shrq	$2, %rsi
	incq	%rsi
	movq	%rdx, %rax
	xorl	%ecx, %ecx
	vpxor	%xmm0, %xmm0, %xmm0
	.p2align 4,,10
	.p2align 3
.L193:
	incq	%rcx
	vmovdqu	%ymm0, (%rax)
	vmovdqu	%ymm0, 32(%rax)
	vmovdqu	%ymm0, 64(%rax)
	addq	$96, %rax
	cmpq	%rcx, %rsi
	ja	.L193
	leaq	0(,%rsi,4), %rcx
	movq	%rbx, %rax
	leaq	(%rcx,%rsi,8), %rsi
	subq	%rcx, %rax
	leaq	(%rdx,%rsi,8), %rdx
	cmpq	%rcx, %rbx
	je	.L288
	vzeroupper
.L192:
	movq	$0, (%rdx)
	movq	$0, 8(%rdx)
	movq	$0, 16(%rdx)
	cmpq	$1, %rax
	je	.L194
	movq	$0, 24(%rdx)
	movq	$0, 32(%rdx)
	movq	$0, 40(%rdx)
	cmpq	$2, %rax
	je	.L194
	movq	$0, 48(%rdx)
	movq	$0, 56(%rdx)
	movq	$0, 64(%rdx)
	cmpq	$3, %rax
	je	.L194
	movq	$0, 72(%rdx)
	movq	$0, 80(%rdx)
	movq	$0, 88(%rdx)
	cmpq	$4, %rax
	je	.L194
	movq	$0, 96(%rdx)
	movq	$0, 104(%rdx)
	movq	$0, 112(%rdx)
	cmpq	$5, %rax
	je	.L194
	movq	$0, 120(%rdx)
	movq	$0, 128(%rdx)
	movq	$0, 136(%rdx)
	cmpq	$6, %rax
	je	.L194
	movq	$0, 144(%rdx)
	movq	$0, 152(%rdx)
	movq	$0, 160(%rdx)
	cmpq	$7, %rax
	je	.L194
	movq	$0, 168(%rdx)
	movq	$0, 176(%rdx)
	movq	$0, 184(%rdx)
	cmpq	$8, %rax
	je	.L194
	movq	$0, 192(%rdx)
	movq	$0, 200(%rdx)
	movq	$0, 208(%rdx)
	cmpq	$9, %rax
	je	.L194
	movq	$0, 216(%rdx)
	movq	$0, 224(%rdx)
	movq	$0, 232(%rdx)
	cmpq	$10, %rax
	je	.L194
	movq	$0, 240(%rdx)
	movq	$0, 248(%rdx)
	movq	$0, 256(%rdx)
	cmpq	$11, %rax
	je	.L194
	movq	$0, 264(%rdx)
	movq	$0, 272(%rdx)
	movq	$0, 280(%rdx)
	.p2align 4,,10
	.p2align 3
.L194:
	movq	8(%r12), %r14
	movq	(%r12), %r15
	cmpq	%r15, %r14
	je	.L195
	movq	8(%rsp), %rax
	movq	%r15, %rdx
	.p2align 4,,10
	.p2align 3
.L196:
	movq	$0, 8(%rax)
	movq	$0, 16(%rax)
	movq	$0, (%rax)
	addq	$24, %rdx
	addq	$24, %rax
	movq	-24(%rdx), %rdi
	movq	%rdi, -24(%rax)
	movq	$0, -24(%rdx)
	movq	-16(%rdx), %r8
	movq	-16(%rax), %rdi
	movq	%r8, -16(%rax)
	movq	%rdi, -16(%rdx)
	movq	-8(%rdx), %r8
	movq	-8(%rax), %rdi
	movq	%r8, -8(%rax)
	movq	%rdi, -8(%rdx)
	cmpq	%rdx, %r14
	jne	.L196
	.p2align 4,,10
	.p2align 3
.L197:
	movq	(%r15), %rdi
	testq	%rdi, %rdi
	je	.L198
	addq	$24, %r15
	call	_ZdlPv@PLT
	cmpq	%r15, %r14
	jne	.L197
.L199:
	movq	(%r12), %r15
.L195:
	testq	%r15, %r15
	je	.L201
	movq	%r15, %rdi
	call	_ZdlPv@PLT
.L201:
	movq	8(%rsp), %rcx
	addq	%r13, %rbx
	movq	(%rsp), %r14
	leaq	(%rbx,%rbx,2), %rax
	addq	%rcx, %r14
	leaq	(%rcx,%rax,8), %rax
	movq	%rcx, (%r12)
	movq	%rax, 8(%r12)
	movq	%r14, 16(%r12)
	addq	$24, %rsp
	popq	%rbx
	popq	%r12
	popq	%r13
	popq	%r14
	popq	%r15
	popq	%rbp
	.cfi_remember_state
	.cfi_def_cfa 7, 8
	ret
	.p2align 4,,10
	.p2align 3
.L198:
	.cfi_restore_state
	addq	$24, %r15
	cmpq	%r15, %r14
	jne	.L197
	jmp	.L199
	.p2align 4,,10
	.p2align 3
.L286:
	.cfi_def_cfa 7, 8
	.cfi_restore 3
	.cfi_restore 6
	.cfi_restore 12
	.cfi_restore 13
	.cfi_restore 14
	.cfi_restore 15
	vzeroupper
	jmp	.L189
	.p2align 4,,10
	.p2align 3
.L288:
	.cfi_def_cfa 6, 16
	.cfi_offset 3, -56
	.cfi_offset 6, -16
	.cfi_offset 12, -48
	.cfi_offset 13, -40
	.cfi_offset 14, -32
	.cfi_offset 15, -24
	vzeroupper
	jmp	.L194
	.p2align 4,,10
	.p2align 3
.L202:
	.cfi_def_cfa 7, 8
	.cfi_restore 3
	.cfi_restore 6
	.cfi_restore 12
	.cfi_restore 13
	.cfi_restore 14
	.cfi_restore 15
	movq	%rsi, %rdx
	movq	%r8, %rax
	jmp	.L187
.L204:
	.cfi_def_cfa 6, 16
	.cfi_offset 3, -56
	.cfi_offset 6, -16
	.cfi_offset 12, -48
	.cfi_offset 13, -40
	.cfi_offset 14, -32
	.cfi_offset 15, -24
	movq	%rbx, %rax
	jmp	.L192
.L287:
	leaq	.LC3(%rip), %rdi
	call	_ZSt20__throw_length_errorPKc@PLT
	.cfi_endproc
.LFE11922:
	.size	_ZNSt6vectorIS_ItSaItEESaIS1_EE17_M_default_appendEm, .-_ZNSt6vectorIS_ItSaItEESaIS1_EE17_M_default_appendEm
	.section	.text._ZNSt6vectorItSaItEE17_M_default_appendEm,"axG",@progbits,_ZNSt6vectorItSaItEE17_M_default_appendEm,comdat
	.align 2
	.p2align 4,,15
	.weak	_ZNSt6vectorItSaItEE17_M_default_appendEm
	.type	_ZNSt6vectorItSaItEE17_M_default_appendEm, @function
_ZNSt6vectorItSaItEE17_M_default_appendEm:
.LFB11929:
	.cfi_startproc
	testq	%rsi, %rsi
	je	.L309
	pushq	%rbp
	.cfi_def_cfa_offset 16
	.cfi_offset 6, -16
	movq	%rsp, %rbp
	.cfi_def_cfa_register 6
	pushq	%r15
	pushq	%r14
	pushq	%r13
	pushq	%r12
	.cfi_offset 15, -24
	.cfi_offset 14, -32
	.cfi_offset 13, -40
	.cfi_offset 12, -48
	movq	%rdi, %r12
	pushq	%rbx
	.cfi_offset 3, -56
	movq	%rsi, %rbx
	subq	$40, %rsp
	movq	8(%rdi), %rcx
	movq	16(%rdi), %rax
	movq	%rcx, %r13
	subq	%rcx, %rax
	sarq	%rax
	subq	(%rdi), %r13
	cmpq	%rax, %rsi
	ja	.L291
	addq	%rbx, %rbx
	movq	%rbx, %rdx
	movq	%rcx, %rdi
	xorl	%esi, %esi
	call	memset@PLT
	movq	%rax, %rcx
	addq	%rbx, %rcx
	movq	%rcx, 8(%r12)
	addq	$40, %rsp
	popq	%rbx
	popq	%r12
	popq	%r13
	popq	%r14
	popq	%r15
	popq	%rbp
	.cfi_def_cfa 7, 8
	ret
	.p2align 4,,10
	.p2align 3
.L309:
	.cfi_restore 3
	.cfi_restore 6
	.cfi_restore 12
	.cfi_restore 13
	.cfi_restore 14
	.cfi_restore 15
	ret
	.p2align 4,,10
	.p2align 3
.L291:
	.cfi_def_cfa 6, 16
	.cfi_offset 3, -56
	.cfi_offset 6, -16
	.cfi_offset 12, -48
	.cfi_offset 13, -40
	.cfi_offset 14, -32
	.cfi_offset 15, -24
	movq	%r13, %rcx
	sarq	%rcx
	movabsq	$9223372036854775807, %rax
	subq	%rcx, %rax
	cmpq	%rsi, %rax
	jb	.L312
	cmpq	%rcx, %rsi
	movq	%rcx, %rax
	cmovnb	%rsi, %rax
	movq	%rcx, -72(%rbp)
	addq	%rcx, %rax
	leaq	(%rax,%rax), %r14
	movq	$-2, %rax
	cmovs	%rax, %r14
	movq	%r14, %rdi
	call	_Znwm@PLT
	movq	8(%r12), %r10
	movq	(%r12), %r9
	movq	%rax, %r15
	addq	%rax, %r14
	movq	%r10, %rax
	subq	%r9, %rax
	xorl	%esi, %esi
	leaq	(%rbx,%rbx), %rdx
	leaq	(%r15,%r13), %rdi
	movq	%r10, -64(%rbp)
	movq	%r9, -56(%rbp)
	movq	%rax, -80(%rbp)
	call	memset@PLT
	movq	-56(%rbp), %r9
	movq	-64(%rbp), %r10
	movq	-72(%rbp), %rcx
	cmpq	%r10, %r9
	je	.L306
	movq	-80(%rbp), %rdx
	movq	%r9, %rsi
	movq	%r15, %rdi
	movq	%rcx, -64(%rbp)
	call	memmove@PLT
	movq	-56(%rbp), %r9
	movq	-64(%rbp), %rcx
.L294:
	movq	%r9, %rdi
	movq	%rcx, -56(%rbp)
	call	_ZdlPv@PLT
	movq	-56(%rbp), %rcx
.L295:
	leaq	(%rbx,%rcx), %rsi
	leaq	(%r15,%rsi,2), %rax
	movq	%r15, (%r12)
	movq	%rax, 8(%r12)
	movq	%r14, 16(%r12)
	addq	$40, %rsp
	popq	%rbx
	popq	%r12
	popq	%r13
	popq	%r14
	popq	%r15
	popq	%rbp
	.cfi_remember_state
	.cfi_def_cfa 7, 8
	ret
	.p2align 4,,10
	.p2align 3
.L306:
	.cfi_restore_state
	testq	%r9, %r9
	je	.L295
	jmp	.L294
.L312:
	leaq	.LC3(%rip), %rdi
	call	_ZSt20__throw_length_errorPKc@PLT
	.cfi_endproc
.LFE11929:
	.size	_ZNSt6vectorItSaItEE17_M_default_appendEm, .-_ZNSt6vectorItSaItEE17_M_default_appendEm
	.section	.rodata._ZN9transform13FastHistogramC2ERKN2cv3MatE.str1.8,"aMS",@progbits,1
	.align 8
.LC4:
	.string	"/home/federico/pdi/tpg2/fast/include/fastHistogram.hpp"
	.section	.text._ZN9transform13FastHistogramC2ERKN2cv3MatE,"axG",@progbits,_ZN9transform13FastHistogramC5ERKN2cv3MatE,comdat
	.align 2
	.p2align 4,,15
	.weak	_ZN9transform13FastHistogramC2ERKN2cv3MatE
	.type	_ZN9transform13FastHistogramC2ERKN2cv3MatE, @function
_ZN9transform13FastHistogramC2ERKN2cv3MatE:
.LFB9997:
	.cfi_startproc
	.cfi_personality 0x9b,DW.ref.__gxx_personality_v0
	.cfi_lsda 0x1b,.LLSDA9997
	pushq	%rbp
	.cfi_def_cfa_offset 16
	.cfi_offset 6, -16
	movq	%rsp, %rbp
	.cfi_def_cfa_register 6
	pushq	%r15
	.cfi_offset 15, -24
	movq	%rsi, %r15
	pushq	%r14
	pushq	%r13
	pushq	%r12
	pushq	%rbx
	andq	$-32, %rsp
	subq	$96, %rsp
	.cfi_offset 14, -32
	.cfi_offset 13, -40
	.cfi_offset 12, -48
	.cfi_offset 3, -56
	movq	%rdi, 24(%rsp)
	movslq	8(%rsi), %rbx
	movq	%fs:40, %rax
	movq	%rax, 88(%rsp)
	xorl	%eax, %eax
	movslq	12(%rsi), %rax
	movq	%rbx, (%rdi)
	movq	%rax, 8(%rdi)
	movq	$0, 16(%rdi)
	movq	$0, 24(%rdi)
	movq	$0, 32(%rdi)
	testq	%rbx, %rbx
	je	.L314
	movabsq	$768614336404564650, %rax
	cmpq	%rax, %rbx
	ja	.L423
	leaq	(%rbx,%rbx,2), %rdi
	leaq	0(,%rdi,8), %r12
	movq	%r12, %rdi
.LEHB1:
	call	_Znwm@PLT
.LEHE1:
	movq	24(%rsp), %rsi
	leaq	(%rax,%r12), %rdi
	leaq	-1(%rbx), %rdx
	movq	%rax, 16(%rsi)
	movq	%rdi, 32(%rsi)
	cmpq	$11, %rdx
	jbe	.L358
	leaq	-4(%rbx), %rsi
	shrq	$2, %rsi
	incq	%rsi
	movq	%rax, %rdx
	xorl	%ecx, %ecx
	vpxor	%xmm0, %xmm0, %xmm0
	.p2align 4,,10
	.p2align 3
.L317:
	incq	%rcx
	vmovdqu	%ymm0, (%rdx)
	vmovdqu	%ymm0, 32(%rdx)
	vmovdqu	%ymm0, 64(%rdx)
	addq	$96, %rdx
	cmpq	%rcx, %rsi
	ja	.L317
	leaq	0(,%rsi,4), %rcx
	movq	%rbx, %rdx
	leaq	(%rcx,%rsi,8), %rsi
	subq	%rcx, %rdx
	leaq	(%rax,%rsi,8), %rax
	cmpq	%rcx, %rbx
	je	.L356
.L316:
	movq	$0, (%rax)
	movq	$0, 8(%rax)
	movq	$0, 16(%rax)
	cmpq	$1, %rdx
	je	.L356
	movq	$0, 24(%rax)
	movq	$0, 32(%rax)
	movq	$0, 40(%rax)
	cmpq	$2, %rdx
	je	.L356
	movq	$0, 48(%rax)
	movq	$0, 56(%rax)
	movq	$0, 64(%rax)
	cmpq	$3, %rdx
	je	.L356
	movq	$0, 72(%rax)
	movq	$0, 80(%rax)
	movq	$0, 88(%rax)
	cmpq	$4, %rdx
	je	.L356
	movq	$0, 96(%rax)
	movq	$0, 104(%rax)
	movq	$0, 112(%rax)
	cmpq	$5, %rdx
	je	.L356
	movq	$0, 120(%rax)
	movq	$0, 128(%rax)
	movq	$0, 136(%rax)
	cmpq	$6, %rdx
	je	.L356
	movq	$0, 144(%rax)
	movq	$0, 152(%rax)
	movq	$0, 160(%rax)
	cmpq	$7, %rdx
	je	.L356
	movq	$0, 168(%rax)
	movq	$0, 176(%rax)
	movq	$0, 184(%rax)
	cmpq	$8, %rdx
	je	.L356
	movq	$0, 192(%rax)
	movq	$0, 200(%rax)
	movq	$0, 208(%rax)
	cmpq	$9, %rdx
	je	.L356
	movq	$0, 216(%rax)
	movq	$0, 224(%rax)
	movq	$0, 232(%rax)
	cmpq	$10, %rdx
	je	.L356
	movq	$0, 240(%rax)
	movq	$0, 248(%rax)
	movq	$0, 256(%rax)
	cmpq	$11, %rdx
	je	.L356
	movq	$0, 264(%rax)
	movq	$0, 272(%rax)
	movq	$0, 280(%rax)
	.p2align 4,,10
	.p2align 3
.L356:
	movq	24(%rsp), %rax
	movq	%rdi, 24(%rax)
	movl	(%r15), %eax
	testl	$4088, %eax
	jne	.L424
.L319:
	testl	$4095, %eax
	jne	.L425
.L320:
	movq	24(%rsp), %rax
	movq	16(%rax), %r13
	movq	24(%rax), %rax
	movq	%rax, 56(%rsp)
	cmpq	%rax, %r13
	je	.L321
	movl	$256, %r14d
	.p2align 4,,10
	.p2align 3
.L329:
	movq	8(%r13), %r12
	movq	0(%r13), %rdx
	movq	%r12, %rax
	subq	%rdx, %rax
	sarq	$3, %rax
	movabsq	$-6148914691236517205, %rdi
	imulq	%rdi, %rax
	movslq	12(%r15), %rsi
	cmpq	%rax, %rsi
	ja	.L426
	jb	.L427
.L323:
	movq	%rdx, %rbx
	cmpq	%rdx, %r12
	jne	.L334
	jmp	.L335
	.p2align 4,,10
	.p2align 3
.L331:
	cmpq	$256, %rax
	je	.L332
	addq	$512, %rdx
	cmpq	%rdx, %rcx
	je	.L332
	movq	%rdx, 8(%rbx)
.L332:
	addq	$24, %rbx
	cmpq	%rbx, %r12
	je	.L335
.L334:
	movq	8(%rbx), %rcx
	movq	(%rbx), %rdx
	movq	%rcx, %rax
	subq	%rdx, %rax
	sarq	%rax
	cmpq	$255, %rax
	ja	.L331
	movq	%r14, %rsi
	subq	%rax, %rsi
	movq	%rbx, %rdi
	vzeroupper
.LEHB2:
	call	_ZNSt6vectorItSaItEE17_M_default_appendEm
	addq	$24, %rbx
	cmpq	%rbx, %r12
	jne	.L334
.L335:
	addq	$24, %r13
	cmpq	%r13, 56(%rsp)
	jne	.L329
	movq	24(%rsp), %rax
	movq	16(%rax), %rax
	movq	%rax, 56(%rsp)
.L321:
	movq	16(%r15), %rax
	movq	%rax, 48(%rsp)
	movq	72(%r15), %rax
	movq	(%rax), %rax
	movq	%rax, 32(%rsp)
	movq	56(%rsp), %rax
	movq	(%rax), %r13
	movq	8(%r13), %rax
	movq	0(%r13), %rcx
	cmpq	%rcx, %rax
	je	.L339
	subq	$2, %rax
	subq	%rcx, %rax
	shrq	%rax
	leaq	2(%rax,%rax), %rdx
	xorl	%esi, %esi
	movq	%rcx, %rdi
	vzeroupper
	call	memset@PLT
	movq	%rax, %rcx
.L339:
	movq	48(%rsp), %rbx
	movl	$1, %esi
	movzbl	(%rbx), %eax
	leaq	1(%rbx), %r12
	movw	%si, (%rcx,%rax,2)
	movq	24(%rsp), %rax
	movq	8(%rax), %rax
	movq	%rax, 40(%rsp)
	cmpq	$1, %rax
	jbe	.L337
	addq	$32, %r13
	addq	40(%rsp), %rbx
	.p2align 4,,10
	.p2align 3
.L341:
	movq	0(%r13), %rax
	movq	-8(%r13), %rcx
	cmpq	%rcx, %rax
	je	.L428
	subq	$2, %rax
	subq	%rcx, %rax
	shrq	%rax
	leaq	2(%rax,%rax), %rdx
	xorl	%esi, %esi
	movq	%rcx, %rdi
	vzeroupper
	call	memset@PLT
	movq	%rax, %rcx
	movzbl	(%r12), %eax
	movl	$1, %edx
	incq	%r12
	movw	%dx, (%rcx,%rax,2)
	addq	$24, %r13
	cmpq	%rbx, %r12
	jne	.L341
.L337:
	movq	24(%rsp), %rax
	movq	(%rax), %rax
	movq	%rax, 24(%rsp)
	cmpq	$1, %rax
	jbe	.L313
	movq	40(%rsp), %rax
	movq	56(%rsp), %r13
	movq	$1, 56(%rsp)
	leaq	(%rax,%rax,2), %r12
	salq	$3, %r12
	.p2align 4,,10
	.p2align 3
.L349:
	movslq	56(%rsp), %r10
	movq	48(%rsp), %rax
	imulq	32(%rsp), %r10
	movq	24(%r13), %rbx
	leaq	(%rax,%r10), %r14
	movq	(%rbx), %rcx
	movq	8(%rbx), %rax
	cmpq	%rcx, %rax
	je	.L347
	subq	$2, %rax
	subq	%rcx, %rax
	shrq	%rax
	leaq	2(%rax,%rax), %rdx
	xorl	%esi, %esi
	movq	%rcx, %rdi
	vzeroupper
	call	memset@PLT
	movq	%rax, %rcx
.L347:
	movzbl	(%r14), %eax
	leaq	1(%r14), %r10
	incw	(%rcx,%rax,2)
	cmpq	$1, 40(%rsp)
	jbe	.L345
	movq	0(%r13), %r14
	movl	$24, %edi
	.p2align 4,,10
	.p2align 3
.L352:
	movq	(%r14,%rdi), %rdx
	movq	(%rbx,%rdi), %rax
	leaq	32(%rdx), %r8
	cmpq	%r8, %rax
	leaq	32(%rax), %r11
	movq	-24(%rbx,%rdi), %rcx
	setnb	%r9b
	cmpq	%r11, %rdx
	setnb	%r8b
	orl	%r8d, %r9d
	leaq	32(%rcx), %r8
	cmpq	%r8, %rax
	setnb	%r8b
	cmpq	%r11, %rcx
	setnb	%r15b
	orl	%r15d, %r8d
	movq	-24(%r14,%rdi), %rsi
	testb	%r8b, %r9b
	je	.L360
	leaq	32(%rsi), %r8
	cmpq	%r8, %rax
	setnb	%r9b
	cmpq	%r11, %rsi
	setnb	%r8b
	orb	%r8b, %r9b
	je	.L360
	vmovdqu	(%rdx), %ymm1
	vpaddw	(%rcx), %ymm1, %ymm0
	vpsubw	(%rsi), %ymm0, %ymm0
	vmovdqu	%ymm0, (%rax)
	vmovdqu	32(%rdx), %ymm2
	vpaddw	32(%rcx), %ymm2, %ymm0
	vpsubw	32(%rsi), %ymm0, %ymm0
	vmovdqu	%ymm0, 32(%rax)
	vmovdqu	64(%rcx), %ymm3
	vpaddw	64(%rdx), %ymm3, %ymm0
	vpsubw	64(%rsi), %ymm0, %ymm0
	vmovdqu	%ymm0, 64(%rax)
	vmovdqu	96(%rcx), %ymm4
	vpaddw	96(%rdx), %ymm4, %ymm0
	vpsubw	96(%rsi), %ymm0, %ymm0
	vmovdqu	%ymm0, 96(%rax)
	vmovdqu	128(%rcx), %ymm5
	vpaddw	128(%rdx), %ymm5, %ymm0
	vpsubw	128(%rsi), %ymm0, %ymm0
	vmovdqu	%ymm0, 128(%rax)
	vmovdqu	160(%rcx), %ymm6
	vpaddw	160(%rdx), %ymm6, %ymm0
	vpsubw	160(%rsi), %ymm0, %ymm0
	vmovdqu	%ymm0, 160(%rax)
	vmovdqu	192(%rcx), %ymm7
	vpaddw	192(%rdx), %ymm7, %ymm0
	vpsubw	192(%rsi), %ymm0, %ymm0
	vmovdqu	%ymm0, 192(%rax)
	vmovdqu	224(%rdx), %ymm1
	vpaddw	224(%rcx), %ymm1, %ymm0
	vpsubw	224(%rsi), %ymm0, %ymm0
	vmovdqu	%ymm0, 224(%rax)
	vmovdqu	256(%rdx), %ymm2
	vpaddw	256(%rcx), %ymm2, %ymm0
	vpsubw	256(%rsi), %ymm0, %ymm0
	vmovdqu	%ymm0, 256(%rax)
	vmovdqu	288(%rdx), %ymm3
	vpaddw	288(%rcx), %ymm3, %ymm0
	vpsubw	288(%rsi), %ymm0, %ymm0
	vmovdqu	%ymm0, 288(%rax)
	vmovdqu	320(%rdx), %ymm4
	vpaddw	320(%rcx), %ymm4, %ymm0
	vpsubw	320(%rsi), %ymm0, %ymm0
	vmovdqu	%ymm0, 320(%rax)
	vmovdqu	352(%rdx), %ymm5
	vpaddw	352(%rcx), %ymm5, %ymm0
	vpsubw	352(%rsi), %ymm0, %ymm0
	vmovdqu	%ymm0, 352(%rax)
	vmovdqu	384(%rdx), %ymm6
	vpaddw	384(%rcx), %ymm6, %ymm0
	vpsubw	384(%rsi), %ymm0, %ymm0
	vmovdqu	%ymm0, 384(%rax)
	vmovdqu	416(%rdx), %ymm7
	vpaddw	416(%rcx), %ymm7, %ymm0
	vpsubw	416(%rsi), %ymm0, %ymm0
	vmovdqu	%ymm0, 416(%rax)
	vmovdqu	448(%rdx), %ymm1
	vpaddw	448(%rcx), %ymm1, %ymm0
	vpsubw	448(%rsi), %ymm0, %ymm0
	vmovdqu	%ymm0, 448(%rax)
	vmovdqu	480(%rdx), %ymm0
	vpaddw	480(%rcx), %ymm0, %ymm0
	vpsubw	480(%rsi), %ymm0, %ymm0
	vmovdqu	%ymm0, 480(%rax)
.L351:
	movzbl	(%r10), %edx
	addq	$24, %rdi
	incw	(%rax,%rdx,2)
	incq	%r10
	cmpq	%r12, %rdi
	jne	.L352
.L345:
	incq	56(%rsp)
	addq	$24, %r13
	movq	56(%rsp), %rax
	cmpq	24(%rsp), %rax
	jne	.L349
.L313:
	movq	88(%rsp), %rax
	xorq	%fs:40, %rax
	jne	.L429
	vzeroupper
	leaq	-40(%rbp), %rsp
	popq	%rbx
	popq	%r12
	popq	%r13
	popq	%r14
	popq	%r15
	popq	%rbp
	.cfi_remember_state
	.cfi_def_cfa 7, 8
	ret
	.p2align 4,,10
	.p2align 3
.L360:
	.cfi_restore_state
	xorl	%r8d, %r8d
	.p2align 4,,10
	.p2align 3
.L350:
	movzwl	(%rdx,%r8,2), %r9d
	addw	(%rcx,%r8,2), %r9w
	subw	(%rsi,%r8,2), %r9w
	movw	%r9w, (%rax,%r8,2)
	incq	%r8
	cmpq	$256, %r8
	jne	.L350
	jmp	.L351
	.p2align 4,,10
	.p2align 3
.L428:
	movzbl	(%r12), %edx
	movl	$1, %ecx
	incq	%r12
	movw	%cx, (%rax,%rdx,2)
	addq	$24, %r13
	cmpq	%rbx, %r12
	jne	.L341
	jmp	.L337
	.p2align 4,,10
	.p2align 3
.L426:
	subq	%rax, %rsi
	movq	%r13, %rdi
	vzeroupper
	call	_ZNSt6vectorIS_ItSaItEESaIS1_EE17_M_default_appendEm
	movq	8(%r13), %r12
	movq	0(%r13), %rdx
	jmp	.L323
	.p2align 4,,10
	.p2align 3
.L427:
	leaq	(%rsi,%rsi,2), %rax
	leaq	(%rdx,%rax,8), %rax
	movq	%rax, 48(%rsp)
	movq	%rax, %rbx
	cmpq	%rax, %r12
	je	.L323
	.p2align 4,,10
	.p2align 3
.L324:
	movq	(%rbx), %rdi
	testq	%rdi, %rdi
	je	.L325
	vzeroupper
	addq	$24, %rbx
	call	_ZdlPv@PLT
	cmpq	%rbx, %r12
	jne	.L324
	movq	48(%rsp), %r12
	movq	0(%r13), %rdx
	movq	%r12, 8(%r13)
	jmp	.L323
	.p2align 4,,10
	.p2align 3
.L325:
	addq	$24, %rbx
	cmpq	%rbx, %r12
	jne	.L324
	movq	48(%rsp), %r12
	movq	0(%r13), %rdx
	movq	%r12, 8(%r13)
	jmp	.L323
.L425:
	leaq	64(%rsp), %rbx
	movl	$23, %esi
	movq	%rbx, %rdi
	movq	$0, 64(%rsp)
	movq	$0, 72(%rsp)
	vzeroupper
	call	_ZN2cv6String8allocateEm@PLT
.LEHE2:
	movl	$17237, %edi
	vmovdqa	.LC6(%rip), %xmm0
	movw	%di, 20(%rax)
	movl	$945772099, 16(%rax)
	movb	$49, 22(%rax)
	vmovups	%xmm0, (%rax)
	movl	$35, %r8d
	leaq	.LC4(%rip), %rcx
	leaq	_ZZN9transform13FastHistogramC4ERKN2cv3MatEE8__func__(%rip), %rdx
	movq	%rbx, %rsi
	movl	$-215, %edi
.LEHB3:
	call	_ZN2cv5errorEiRKNS_6StringEPKcS4_i@PLT
.LEHE3:
	movq	%rbx, %rdi
	call	_ZN2cv6String10deallocateEv@PLT
	jmp	.L320
.L424:
	leaq	64(%rsp), %rbx
	movl	$21, %esi
	movq	%rbx, %rdi
	movq	$0, 64(%rsp)
	movq	$0, 72(%rsp)
	vzeroupper
.LEHB4:
	call	_ZN2cv6String8allocateEm@PLT
.LEHE4:
	vmovdqa	.LC5(%rip), %xmm0
	movl	$540884256, 16(%rax)
	movb	$49, 20(%rax)
	vmovups	%xmm0, (%rax)
	movl	$34, %r8d
	leaq	.LC4(%rip), %rcx
	leaq	_ZZN9transform13FastHistogramC4ERKN2cv3MatEE8__func__(%rip), %rdx
	movq	%rbx, %rsi
	movl	$-215, %edi
.LEHB5:
	call	_ZN2cv5errorEiRKNS_6StringEPKcS4_i@PLT
.LEHE5:
	movq	%rbx, %rdi
	call	_ZN2cv6String10deallocateEv@PLT
	movl	(%r15), %eax
	jmp	.L319
.L314:
	xorl	%edi, %edi
	jmp	.L356
.L358:
	movq	%rbx, %rdx
	jmp	.L316
.L429:
	vzeroupper
	call	__stack_chk_fail@PLT
.L423:
.LEHB6:
	call	_ZSt17__throw_bad_allocv@PLT
.LEHE6:
.L361:
	movq	%rax, %r12
	jmp	.L354
.L363:
	movq	%rax, %r12
	jmp	.L355
.L362:
	movq	%rax, %r12
.L353:
	movq	%rbx, %rdi
	vzeroupper
	call	_ZN2cv6String10deallocateEv@PLT
.L354:
	movq	24(%rsp), %rdi
	addq	$16, %rdi
	vzeroupper
	call	_ZNSt6vectorIS_IS_ItSaItEESaIS1_EESaIS3_EED1Ev
	movq	%r12, %rdi
.LEHB7:
	call	_Unwind_Resume@PLT
.LEHE7:
.L355:
	movq	%rbx, %rdi
	vzeroupper
	call	_ZN2cv6String10deallocateEv@PLT
	jmp	.L354
	.cfi_endproc
.LFE9997:
	.section	.gcc_except_table
.LLSDA9997:
	.byte	0xff
	.byte	0xff
	.byte	0x1
	.uleb128 .LLSDACSE9997-.LLSDACSB9997
.LLSDACSB9997:
	.uleb128 .LEHB1-.LFB9997
	.uleb128 .LEHE1-.LEHB1
	.uleb128 0
	.uleb128 0
	.uleb128 .LEHB2-.LFB9997
	.uleb128 .LEHE2-.LEHB2
	.uleb128 .L361-.LFB9997
	.uleb128 0
	.uleb128 .LEHB3-.LFB9997
	.uleb128 .LEHE3-.LEHB3
	.uleb128 .L363-.LFB9997
	.uleb128 0
	.uleb128 .LEHB4-.LFB9997
	.uleb128 .LEHE4-.LEHB4
	.uleb128 .L361-.LFB9997
	.uleb128 0
	.uleb128 .LEHB5-.LFB9997
	.uleb128 .LEHE5-.LEHB5
	.uleb128 .L362-.LFB9997
	.uleb128 0
	.uleb128 .LEHB6-.LFB9997
	.uleb128 .LEHE6-.LEHB6
	.uleb128 0
	.uleb128 0
	.uleb128 .LEHB7-.LFB9997
	.uleb128 .LEHE7-.LEHB7
	.uleb128 0
	.uleb128 0
.LLSDACSE9997:
	.section	.text._ZN9transform13FastHistogramC2ERKN2cv3MatE,"axG",@progbits,_ZN9transform13FastHistogramC5ERKN2cv3MatE,comdat
	.size	_ZN9transform13FastHistogramC2ERKN2cv3MatE, .-_ZN9transform13FastHistogramC2ERKN2cv3MatE
	.weak	_ZN9transform13FastHistogramC1ERKN2cv3MatE
	.set	_ZN9transform13FastHistogramC1ERKN2cv3MatE,_ZN9transform13FastHistogramC2ERKN2cv3MatE
	.section	.rodata.str1.1
.LC7:
	.string	"1"
.LC8:
	.string	"0"
.LC9:
	.string	"small.jpg"
.LC10:
	.string	"basic_string::_M_create"
	.section	.rodata.str1.8,"aMS",@progbits,1
	.align 8
.LC11:
	.string	"-------------------------------"
	.section	.rodata.str1.1
.LC12:
	.string	" "
	.section	.rodata.str1.8
	.align 8
.LC13:
	.string	"vector::_M_range_check: __n (which is %zu) >= this->size() (which is %zu)"
	.section	.rodata.str1.1
.LC14:
	.string	":"
	.section	.text.unlikely,"ax",@progbits
.LCOLDB15:
	.section	.text.startup,"ax",@progbits
.LHOTB15:
	.p2align 4,,15
	.globl	main
	.type	main, @function
main:
.LFB10004:
	.cfi_startproc
	.cfi_personality 0x9b,DW.ref.__gxx_personality_v0
	.cfi_lsda 0x1b,.LLSDA10004
	pushq	%rbp
	.cfi_def_cfa_offset 16
	.cfi_offset 6, -16
	xorl	%ecx, %ecx
	xorl	%edx, %edx
	movq	%rsp, %rbp
	.cfi_def_cfa_register 6
	pushq	%r15
	xorl	%esi, %esi
	leaq	main._omp_fn.0(%rip), %rdi
	pushq	%r14
	pushq	%r13
	pushq	%r12
	pushq	%rbx
	andq	$-32, %rsp
	subq	$704, %rsp
	.cfi_offset 15, -24
	.cfi_offset 14, -32
	.cfi_offset 13, -40
	.cfi_offset 12, -48
	.cfi_offset 3, -56
	movq	%fs:40, %rax
	movq	%rax, 696(%rsp)
	xorl	%eax, %eax
	leaq	112(%rsp), %r12
	call	GOMP_parallel@PLT
	leaq	96(%rsp), %rax
	leaq	.LC9(%rip), %rdi
	movq	%rax, 24(%rsp)
	movq	%r12, 96(%rsp)
	call	_ZNSt11char_traitsIcE6lengthEPKc
	movq	%rax, %rbx
	cmpq	$15, %rax
	ja	.L508
	cmpq	$1, %rax
	jne	.L434
	movb	$115, 112(%rsp)
	jmp	.L435
.L434:
	testq	%rax, %rax
	jne	.L509
.L435:
	movq	96(%rsp), %rax
	movq	%rbx, 104(%rsp)
	movb	$0, (%rax,%rbx)
	leaq	_ZSt4cout(%rip), %rdi
	movq	104(%rsp), %rdx
	movq	96(%rsp), %rsi
.LEHB8:
	call	_ZSt16__ostream_insertIcSt11char_traitsIcEERSt13basic_ostreamIT_T0_ES6_PKS3_l@PLT
	movq	%rax, %rdi
	call	_ZSt4endlIcSt11char_traitsIcEERSt13basic_ostreamIT_T0_ES6_@PLT
.LEHE8:
	movq	104(%rsp), %rbx
	leaq	48(%rsp), %rax
	movq	$0, 48(%rsp)
	movq	$0, 56(%rsp)
	movq	%rax, 32(%rsp)
	testq	%rbx, %rbx
	jne	.L510
.L436:
	movq	32(%rsp), %r14
	leaq	304(%rsp), %r15
	movl	$1, %edx
	movq	%r14, %rsi
	movq	%r15, %rdi
	movq	%r15, 16(%rsp)
.LEHB9:
	call	_ZN2cv6imreadERKNS_6StringEi@PLT
.LEHE9:
	movq	%r14, %rdi
	call	_ZN2cv6String10deallocateEv@PLT
	movl	312(%rsp), %esi
	leaq	_ZSt4cout(%rip), %rdi
.LEHB10:
	call	_ZNSolsEi@PLT
	movq	%rax, %rdi
	call	_ZSt4endlIcSt11char_traitsIcEERSt13basic_ostreamIT_T0_ES6_@PLT
	movl	316(%rsp), %esi
	leaq	_ZSt4cout(%rip), %rdi
	call	_ZNSolsEi@PLT
	movq	%rax, %rdi
	call	_ZSt4endlIcSt11char_traitsIcEERSt13basic_ostreamIT_T0_ES6_@PLT
	movl	$3, %eax
	sarx	%eax, 304(%rsp), %esi
	andl	$511, %esi
	incl	%esi
	leaq	_ZSt4cout(%rip), %rdi
	call	_ZNSolsEi@PLT
	movq	%rax, %rdi
	call	_ZSt4endlIcSt11char_traitsIcEERSt13basic_ostreamIT_T0_ES6_@PLT
.LEHE10:
	leaq	400(%rsp), %rcx
	leaq	8(%rcx), %rax
	movq	%rax, 464(%rsp)
	leaq	80(%rcx), %rax
	movq	%rax, 472(%rsp)
	leaq	104(%rcx), %rax
	movq	%rax, 560(%rsp)
	leaq	176(%rcx), %rax
	movq	%rax, 568(%rsp)
	leaq	200(%rcx), %rax
	movq	$1124007936, 400(%rsp)
	movq	$0, 408(%rsp)
	movq	$0, 416(%rsp)
	movq	$0, 424(%rsp)
	movq	$0, 432(%rsp)
	movq	$0, 440(%rsp)
	movq	$0, 448(%rsp)
	movq	$0, 456(%rsp)
	movq	%rcx, 8(%rsp)
	movq	$0, 480(%rsp)
	movq	$0, 488(%rsp)
	movq	$1124007936, 496(%rsp)
	movq	$0, 504(%rsp)
	movq	$0, 512(%rsp)
	movq	$0, 520(%rsp)
	movq	$0, 528(%rsp)
	movq	$0, 536(%rsp)
	movq	$0, 544(%rsp)
	movq	$0, 552(%rsp)
	movq	$0, 576(%rsp)
	movq	$0, 584(%rsp)
	movq	$1124007936, 592(%rsp)
	movq	$0, 600(%rsp)
	movq	$0, 608(%rsp)
	movq	$0, 616(%rsp)
	movq	$0, 624(%rsp)
	movq	$0, 632(%rsp)
	movq	$0, 640(%rsp)
	movq	%rcx, %rsi
	movq	$0, 648(%rsp)
	movq	%r15, %rdi
	movq	%rax, 656(%rsp)
	leaq	272(%rcx), %rax
	movq	%rcx, %rbx
	movq	%rax, 664(%rsp)
	movq	$0, 672(%rsp)
	movq	$0, 680(%rsp)
.LEHB11:
	call	_ZN2cv5splitERKNS_3MatEPS0_@PLT
	movq	%rbx, %rsi
	movq	%r14, %rdi
	call	_ZN9transform13FastHistogramC1ERKN2cv3MatE
.LEHE11:
	movl	312(%rsp), %esi
	movq	$0, 40(%rsp)
	leaq	.LC8(%rip), %r14
	leaq	_ZSt4cout(%rip), %r12
	leaq	.LC12(%rip), %r15
	testl	%esi, %esi
	je	.L447
	.p2align 4,,10
	.p2align 3
.L437:
	movl	316(%rsp), %ecx
	movslq	40(%rsp), %r13
	xorl	%ebx, %ebx
	testl	%ecx, %ecx
	je	.L443
	.p2align 4,,10
	.p2align 3
.L444:
	movq	472(%rsp), %rax
	leaq	.LC7(%rip), %rsi
	movq	(%rax), %rdx
	movslq	%ebx, %rax
	imulq	%r13, %rdx
	movq	%r12, %rdi
	addq	416(%rsp), %rdx
	cmpb	$0, (%rdx,%rax)
	cmovne	%r14, %rsi
	movl	$1, %edx
.LEHB12:
	call	_ZSt16__ostream_insertIcSt11char_traitsIcEERSt13basic_ostreamIT_T0_ES6_PKS3_l@PLT
	movl	$1, %edx
	movq	%r15, %rsi
	movq	%r12, %rdi
	call	_ZSt16__ostream_insertIcSt11char_traitsIcEERSt13basic_ostreamIT_T0_ES6_PKS3_l@PLT
	movslq	316(%rsp), %rax
	incq	%rbx
	cmpq	%rbx, %rax
	ja	.L444
.L443:
	movq	(%r12), %rax
	movq	-24(%rax), %rax
	movq	240(%r12,%rax), %rbx
	testq	%rbx, %rbx
	je	.L511
	cmpb	$0, 56(%rbx)
	je	.L445
	movsbl	67(%rbx), %esi
.L446:
	movq	%r12, %rdi
	call	_ZNSo3putEc@PLT
	movq	%rax, %rdi
	call	_ZNSo5flushEv@PLT
	incq	40(%rsp)
	movslq	312(%rsp), %rax
	movq	40(%rsp), %rdi
	cmpq	%rdi, %rax
	ja	.L437
.L447:
	leaq	.LC11(%rip), %rdi
	call	_ZNSt11char_traitsIcE6lengthEPKc
	movq	%rax, %rdx
	leaq	.LC11(%rip), %rsi
	leaq	_ZSt4cout(%rip), %rdi
	call	_ZSt16__ostream_insertIcSt11char_traitsIcEERSt13basic_ostreamIT_T0_ES6_PKS3_l@PLT
	movq	_ZSt4cout(%rip), %rax
	leaq	_ZSt4cout(%rip), %r15
	movq	-24(%rax), %rax
	movq	240(%r15,%rax), %rbx
	testq	%rbx, %rbx
	je	.L512
	cmpb	$0, 56(%rbx)
	je	.L449
	movzbl	67(%rbx), %eax
.L450:
	movsbl	%al, %esi
	leaq	_ZSt4cout(%rip), %rdi
	call	_ZNSo3putEc@PLT
	movq	%rax, %rdi
	call	_ZNSo5flushEv@PLT
	movl	312(%rsp), %edx
	xorl	%r14d, %r14d
	xorl	%r13d, %r13d
	movabsq	$-6148914691236517205, %r12
	testl	%edx, %edx
	je	.L465
	.p2align 4,,10
	.p2align 3
.L451:
	movl	316(%rsp), %eax
	testl	%eax, %eax
	je	.L461
	movq	64(%rsp), %rax
	movq	72(%rsp), %rdx
	subq	%rax, %rdx
	sarq	$3, %rdx
	imulq	%r12, %rdx
	cmpq	%rdx, %r13
	jnb	.L456
	addq	%r14, %rax
	movq	(%rax), %rcx
	cmpq	%rcx, 8(%rax)
	je	.L482
	xorl	%ebx, %ebx
	jmp	.L458
	.p2align 4,,10
	.p2align 3
.L504:
	movq	64(%rsp), %rax
	movq	72(%rsp), %rdx
	subq	%rax, %rdx
	sarq	$3, %rdx
	imulq	%r12, %rdx
	cmpq	%r13, %rdx
	jbe	.L456
	addq	%r14, %rax
	movq	(%rax), %rcx
	movq	8(%rax), %rdx
	subq	%rcx, %rdx
	sarq	$3, %rdx
	imulq	%r12, %rdx
	cmpq	%rdx, %rbx
	jnb	.L457
.L458:
	leaq	(%rbx,%rbx,2), %rax
	leaq	(%rcx,%rax,8), %rdx
	movq	(%rdx), %rax
	cmpq	8(%rdx), %rax
	je	.L513
	movzwl	(%rax), %esi
	leaq	_ZSt4cout(%rip), %rdi
	call	_ZNSo9_M_insertImEERSoT_@PLT
	movl	$1, %edx
	leaq	.LC12(%rip), %rsi
	movq	%rax, %rdi
	call	_ZSt16__ostream_insertIcSt11char_traitsIcEERSt13basic_ostreamIT_T0_ES6_PKS3_l@PLT
	movslq	316(%rsp), %rax
	incq	%rbx
	cmpq	%rbx, %rax
	ja	.L504
.L461:
	movq	(%r15), %rax
	movq	-24(%rax), %rax
	movq	240(%r15,%rax), %rbx
	testq	%rbx, %rbx
	je	.L514
	cmpb	$0, 56(%rbx)
	je	.L463
	movsbl	67(%rbx), %esi
.L464:
	leaq	_ZSt4cout(%rip), %rdi
	call	_ZNSo3putEc@PLT
	movq	%rax, %rdi
	call	_ZNSo5flushEv@PLT
	movslq	312(%rsp), %rax
	incq	%r13
	addq	$24, %r14
	cmpq	%r13, %rax
	ja	.L451
.L465:
	movl	$1, 128(%rsp)
	vpxor	%xmm0, %xmm0, %xmm0
	vmovups	%xmm0, 148(%rsp)
	vmovups	%xmm0, 132(%rsp)
	vmovups	%xmm0, 212(%rsp)
	vmovups	%xmm0, 196(%rsp)
	vmovdqa	128(%rsp), %ymm0
	movl	160(%rsp), %eax
	vpmulld	%ymm0, %ymm0, %ymm0
	movl	$2, 192(%rsp)
	imull	%eax, %eax
	xorl	%ebx, %ebx
	leaq	_ZNKSt5ctypeIcE8do_widenEc(%rip), %r14
	vpaddd	192(%rsp), %ymm0, %ymm0
	addl	224(%rsp), %eax
	movl	$0, 164(%rsp)
	movl	$0, 228(%rsp)
	vmovdqa	%ymm0, 256(%rsp)
	movl	%eax, 288(%rsp)
	movl	$0, 292(%rsp)
	vzeroupper
	jmp	.L452
.L517:
	movsbl	67(%r12), %esi
.L468:
	movq	%r13, %rdi
	call	_ZNSo3putEc@PLT
	movq	%rax, %rdi
	call	_ZNSo5flushEv@PLT
	incq	%rbx
	cmpq	$10, %rbx
	je	.L515
.L452:
	movq	%rbx, %rsi
	leaq	_ZSt4cout(%rip), %rdi
	call	_ZNSo9_M_insertImEERSoT_@PLT
	movl	$1, %edx
	leaq	.LC14(%rip), %rsi
	movq	%rax, %rdi
	movq	%rax, %r12
	call	_ZSt16__ostream_insertIcSt11char_traitsIcEERSt13basic_ostreamIT_T0_ES6_PKS3_l@PLT
	movl	256(%rsp,%rbx,4), %esi
	movq	%r12, %rdi
	call	_ZNSolsEi@PLT
	movq	%rax, %r13
	movq	(%rax), %rax
	movq	-24(%rax), %rax
	movq	240(%r13,%rax), %r12
	testq	%r12, %r12
	je	.L516
	cmpb	$0, 56(%r12)
	jne	.L517
	movq	%r12, %rdi
	call	_ZNKSt5ctypeIcE13_M_widen_initEv@PLT
	movq	(%r12), %rax
	movl	$10, %esi
	movq	48(%rax), %rax
	cmpq	%r14, %rax
	je	.L468
	movq	%r12, %rdi
	call	*%rax
	movsbl	%al, %esi
	jmp	.L468
	.p2align 4,,10
	.p2align 3
.L463:
	movq	%rbx, %rdi
	call	_ZNKSt5ctypeIcE13_M_widen_initEv@PLT
	movq	(%rbx), %rax
	leaq	_ZNKSt5ctypeIcE8do_widenEc(%rip), %rdi
	movq	48(%rax), %rax
	movl	$10, %esi
	cmpq	%rdi, %rax
	je	.L464
	movq	%rbx, %rdi
	call	*%rax
	movsbl	%al, %esi
	jmp	.L464
.L445:
	movq	%rbx, %rdi
	call	_ZNKSt5ctypeIcE13_M_widen_initEv@PLT
	movq	(%rbx), %rax
	leaq	_ZNKSt5ctypeIcE8do_widenEc(%rip), %rdx
	movq	48(%rax), %rax
	movl	$10, %esi
	cmpq	%rdx, %rax
	je	.L446
	movq	%rbx, %rdi
	call	*%rax
	movsbl	%al, %esi
	jmp	.L446
.L449:
	movq	%rbx, %rdi
	call	_ZNKSt5ctypeIcE13_M_widen_initEv@PLT
	movq	(%rbx), %rax
	movl	$10, %esi
	movq	%rbx, %rdi
	call	*48(%rax)
.LEHE12:
	jmp	.L450
.L515:
	movq	32(%rsp), %rdi
	addq	$16, %rdi
	call	_ZNSt6vectorIS_IS_ItSaItEESaIS1_EESaIS3_EED1Ev
	movq	8(%rsp), %rbx
	leaq	192(%rbx), %rdi
	call	_ZN2cv3MatD1Ev
	leaq	96(%rbx), %rdi
	call	_ZN2cv3MatD1Ev
	movq	%rbx, %rdi
	call	_ZN2cv3MatD1Ev
	movq	16(%rsp), %rdi
	call	_ZN2cv3MatD1Ev
	movq	24(%rsp), %rax
	movq	96(%rsp), %rdi
	addq	$16, %rax
	cmpq	%rax, %rdi
	je	.L469
	call	_ZdlPv@PLT
.L469:
	xorl	%eax, %eax
	movq	696(%rsp), %rdi
	xorq	%fs:40, %rdi
	jne	.L518
	leaq	-40(%rbp), %rsp
	popq	%rbx
	popq	%r12
	popq	%r13
	popq	%r14
	popq	%r15
	popq	%rbp
	.cfi_remember_state
	.cfi_def_cfa 7, 8
	ret
.L510:
	.cfi_restore_state
	movq	%rbx, %rsi
	movq	%rax, %rdi
	movq	96(%rsp), %r12
.LEHB13:
	call	_ZN2cv6String8allocateEm@PLT
.LEHE13:
	movq	%rbx, %rdx
	movq	%r12, %rsi
	movq	%rax, %rdi
	call	memcpy@PLT
	jmp	.L436
.L508:
	testq	%rax, %rax
	js	.L519
	leaq	1(%rax), %rdi
.LEHB14:
	call	_Znwm@PLT
.LEHE14:
	movq	%rax, 96(%rsp)
	movq	%rbx, 112(%rsp)
.L433:
	movq	%rbx, %rdx
	leaq	.LC9(%rip), %rsi
	movq	%rax, %rdi
	call	memcpy@PLT
	jmp	.L435
.L456:
	movq	%r13, %rsi
	leaq	.LC13(%rip), %rdi
	xorl	%eax, %eax
.LEHB15:
	call	_ZSt24__throw_out_of_range_fmtPKcz@PLT
.L482:
	xorl	%edx, %edx
	xorl	%ebx, %ebx
.L457:
	movq	%rbx, %rsi
	leaq	.LC13(%rip), %rdi
	xorl	%eax, %eax
	call	_ZSt24__throw_out_of_range_fmtPKcz@PLT
.L513:
	xorl	%edx, %edx
	xorl	%esi, %esi
	leaq	.LC13(%rip), %rdi
	xorl	%eax, %eax
	call	_ZSt24__throw_out_of_range_fmtPKcz@PLT
.L516:
	call	_ZSt16__throw_bad_castv@PLT
.LEHE15:
.L518:
	call	__stack_chk_fail@PLT
.L519:
	leaq	.LC10(%rip), %rdi
.LEHB16:
	call	_ZSt20__throw_length_errorPKc@PLT
.LEHE16:
.L509:
	movq	%r12, %rax
	jmp	.L433
.L514:
.LEHB17:
	call	_ZSt16__throw_bad_castv@PLT
.L512:
	call	_ZSt16__throw_bad_castv@PLT
.L511:
	call	_ZSt16__throw_bad_castv@PLT
.LEHE17:
.L488:
	movq	%rax, %rbx
	jmp	.L472
.L485:
	movq	%rax, %rbx
	vzeroupper
	jmp	.L471
.L487:
	movq	%rax, %rbx
	vzeroupper
	jmp	.L474
.L486:
	movq	%rax, %rbx
	jmp	.L470
.L489:
	movq	%rax, %rbx
	vzeroupper
	jmp	.L473
	.section	.gcc_except_table
.LLSDA10004:
	.byte	0xff
	.byte	0xff
	.byte	0x1
	.uleb128 .LLSDACSE10004-.LLSDACSB10004
.LLSDACSB10004:
	.uleb128 .LEHB8-.LFB10004
	.uleb128 .LEHE8-.LEHB8
	.uleb128 .L485-.LFB10004
	.uleb128 0
	.uleb128 .LEHB9-.LFB10004
	.uleb128 .LEHE9-.LEHB9
	.uleb128 .L486-.LFB10004
	.uleb128 0
	.uleb128 .LEHB10-.LFB10004
	.uleb128 .LEHE10-.LEHB10
	.uleb128 .L487-.LFB10004
	.uleb128 0
	.uleb128 .LEHB11-.LFB10004
	.uleb128 .LEHE11-.LEHB11
	.uleb128 .L489-.LFB10004
	.uleb128 0
	.uleb128 .LEHB12-.LFB10004
	.uleb128 .LEHE12-.LEHB12
	.uleb128 .L488-.LFB10004
	.uleb128 0
	.uleb128 .LEHB13-.LFB10004
	.uleb128 .LEHE13-.LEHB13
	.uleb128 .L485-.LFB10004
	.uleb128 0
	.uleb128 .LEHB14-.LFB10004
	.uleb128 .LEHE14-.LEHB14
	.uleb128 0
	.uleb128 0
	.uleb128 .LEHB15-.LFB10004
	.uleb128 .LEHE15-.LEHB15
	.uleb128 .L488-.LFB10004
	.uleb128 0
	.uleb128 .LEHB16-.LFB10004
	.uleb128 .LEHE16-.LEHB16
	.uleb128 0
	.uleb128 0
	.uleb128 .LEHB17-.LFB10004
	.uleb128 .LEHE17-.LEHB17
	.uleb128 .L488-.LFB10004
	.uleb128 0
.LLSDACSE10004:
	.section	.text.startup
	.cfi_endproc
	.section	.text.unlikely
	.cfi_startproc
	.cfi_personality 0x9b,DW.ref.__gxx_personality_v0
	.cfi_lsda 0x1b,.LLSDAC10004
	.type	main.cold.99, @function
main.cold.99:
.L472:
	.cfi_def_cfa 6, 16
	.cfi_offset 3, -56
	.cfi_offset 6, -16
	.cfi_offset 12, -48
	.cfi_offset 13, -40
	.cfi_offset 14, -32
	.cfi_offset 15, -24
	movq	32(%rsp), %rdi
	addq	$16, %rdi
	vzeroupper
	call	_ZNSt6vectorIS_IS_ItSaItEESaIS1_EESaIS3_EED1Ev
.L473:
	movq	8(%rsp), %r15
	leaq	192(%r15), %rdi
	call	_ZN2cv3MatD1Ev
	leaq	96(%r15), %rdi
	call	_ZN2cv3MatD1Ev
	movq	%r15, %rdi
	call	_ZN2cv3MatD1Ev
.L474:
	movq	16(%rsp), %rdi
	call	_ZN2cv3MatD1Ev
.L471:
	movq	24(%rsp), %rax
	movq	96(%rsp), %rdi
	addq	$16, %rax
	cmpq	%rax, %rdi
	je	.L475
	call	_ZdlPv@PLT
.L475:
	movq	%rbx, %rdi
.LEHB18:
	call	_Unwind_Resume@PLT
.LEHE18:
.L470:
	movq	32(%rsp), %rdi
	vzeroupper
	call	_ZN2cv6String10deallocateEv@PLT
	jmp	.L471
	.cfi_endproc
.LFE10004:
	.section	.gcc_except_table
.LLSDAC10004:
	.byte	0xff
	.byte	0xff
	.byte	0x1
	.uleb128 .LLSDACSEC10004-.LLSDACSBC10004
.LLSDACSBC10004:
	.uleb128 .LEHB18-.LCOLDB15
	.uleb128 .LEHE18-.LEHB18
	.uleb128 0
	.uleb128 0
.LLSDACSEC10004:
	.section	.text.unlikely
	.section	.text.startup
	.size	main, .-main
	.section	.text.unlikely
	.size	main.cold.99, .-main.cold.99
.LCOLDE15:
	.section	.text.startup
.LHOTE15:
	.p2align 4,,15
	.type	_GLOBAL__sub_I_main, @function
_GLOBAL__sub_I_main:
.LFB14094:
	.cfi_startproc
	pushq	%rbp
	.cfi_def_cfa_offset 16
	.cfi_offset 6, -16
	leaq	_ZStL8__ioinit(%rip), %rdi
	movq	%rsp, %rbp
	.cfi_def_cfa_register 6
	call	_ZNSt8ios_base4InitC1Ev@PLT
	movq	_ZNSt8ios_base4InitD1Ev@GOTPCREL(%rip), %rdi
	leaq	__dso_handle(%rip), %rdx
	leaq	_ZStL8__ioinit(%rip), %rsi
	call	__cxa_atexit@PLT
	cmpb	$0, _ZGVN7cvflann7anyimpl12SinglePolicyINS0_9empty_anyEE6policyE(%rip)
	je	.L532
.L521:
	cmpb	$0, _ZGVN7cvflann7anyimpl12SinglePolicyIPKcE6policyE(%rip)
	je	.L533
.L522:
	cmpb	$0, _ZGVN7cvflann7anyimpl12SinglePolicyIiE6policyE(%rip)
	je	.L534
.L523:
	cmpb	$0, _ZGVN7cvflann7anyimpl12SinglePolicyIfE6policyE(%rip)
	je	.L535
.L524:
	cmpb	$0, _ZGVN7cvflann7anyimpl12SinglePolicyIbE6policyE(%rip)
	je	.L536
.L525:
	cmpb	$0, _ZGVN7cvflann7anyimpl12SinglePolicyINS_17flann_algorithm_tEE6policyE(%rip)
	je	.L537
.L526:
	cmpb	$0, _ZGVN7cvflann7anyimpl12SinglePolicyINS_20flann_centers_init_tEE6policyE(%rip)
	je	.L538
.L527:
	cmpb	$0, _ZGVN7cvflann7anyimpl12SinglePolicyIjE6policyE(%rip)
	je	.L539
.L528:
	cmpb	$0, _ZGVN7cvflann7anyimpl12SinglePolicyIN2cv6StringEE6policyE(%rip)
	je	.L540
	popq	%rbp
	.cfi_remember_state
	.cfi_def_cfa 7, 8
	ret
.L532:
	.cfi_restore_state
	leaq	__dso_handle(%rip), %rdx
	leaq	_ZN7cvflann7anyimpl12SinglePolicyINS0_9empty_anyEE6policyE(%rip), %rsi
	leaq	_ZN7cvflann7anyimpl14big_any_policyINS0_9empty_anyEED1Ev(%rip), %rdi
	movb	$1, _ZGVN7cvflann7anyimpl12SinglePolicyINS0_9empty_anyEE6policyE(%rip)
	call	__cxa_atexit@PLT
	jmp	.L521
.L540:
	leaq	__dso_handle(%rip), %rdx
	leaq	_ZN7cvflann7anyimpl12SinglePolicyIN2cv6StringEE6policyE(%rip), %rsi
	leaq	_ZN7cvflann7anyimpl14big_any_policyIN2cv6StringEED1Ev(%rip), %rdi
	popq	%rbp
	.cfi_remember_state
	.cfi_def_cfa 7, 8
	movb	$1, _ZGVN7cvflann7anyimpl12SinglePolicyIN2cv6StringEE6policyE(%rip)
	jmp	__cxa_atexit@PLT
.L539:
	.cfi_restore_state
	leaq	__dso_handle(%rip), %rdx
	leaq	_ZN7cvflann7anyimpl12SinglePolicyIjE6policyE(%rip), %rsi
	leaq	_ZN7cvflann7anyimpl16small_any_policyIjED1Ev(%rip), %rdi
	movb	$1, _ZGVN7cvflann7anyimpl12SinglePolicyIjE6policyE(%rip)
	call	__cxa_atexit@PLT
	jmp	.L528
.L538:
	leaq	__dso_handle(%rip), %rdx
	leaq	_ZN7cvflann7anyimpl12SinglePolicyINS_20flann_centers_init_tEE6policyE(%rip), %rsi
	leaq	_ZN7cvflann7anyimpl14big_any_policyINS_20flann_centers_init_tEED1Ev(%rip), %rdi
	movb	$1, _ZGVN7cvflann7anyimpl12SinglePolicyINS_20flann_centers_init_tEE6policyE(%rip)
	call	__cxa_atexit@PLT
	jmp	.L527
.L537:
	leaq	__dso_handle(%rip), %rdx
	leaq	_ZN7cvflann7anyimpl12SinglePolicyINS_17flann_algorithm_tEE6policyE(%rip), %rsi
	leaq	_ZN7cvflann7anyimpl14big_any_policyINS_17flann_algorithm_tEED1Ev(%rip), %rdi
	movb	$1, _ZGVN7cvflann7anyimpl12SinglePolicyINS_17flann_algorithm_tEE6policyE(%rip)
	call	__cxa_atexit@PLT
	jmp	.L526
.L536:
	leaq	__dso_handle(%rip), %rdx
	leaq	_ZN7cvflann7anyimpl12SinglePolicyIbE6policyE(%rip), %rsi
	leaq	_ZN7cvflann7anyimpl16small_any_policyIbED1Ev(%rip), %rdi
	movb	$1, _ZGVN7cvflann7anyimpl12SinglePolicyIbE6policyE(%rip)
	call	__cxa_atexit@PLT
	jmp	.L525
.L535:
	leaq	__dso_handle(%rip), %rdx
	leaq	_ZN7cvflann7anyimpl12SinglePolicyIfE6policyE(%rip), %rsi
	leaq	_ZN7cvflann7anyimpl16small_any_policyIfED1Ev(%rip), %rdi
	movb	$1, _ZGVN7cvflann7anyimpl12SinglePolicyIfE6policyE(%rip)
	call	__cxa_atexit@PLT
	jmp	.L524
.L534:
	leaq	__dso_handle(%rip), %rdx
	leaq	_ZN7cvflann7anyimpl12SinglePolicyIiE6policyE(%rip), %rsi
	leaq	_ZN7cvflann7anyimpl16small_any_policyIiED1Ev(%rip), %rdi
	movb	$1, _ZGVN7cvflann7anyimpl12SinglePolicyIiE6policyE(%rip)
	call	__cxa_atexit@PLT
	jmp	.L523
.L533:
	leaq	__dso_handle(%rip), %rdx
	leaq	_ZN7cvflann7anyimpl12SinglePolicyIPKcE6policyE(%rip), %rsi
	leaq	_ZN7cvflann7anyimpl16small_any_policyIPKcED1Ev(%rip), %rdi
	movb	$1, _ZGVN7cvflann7anyimpl12SinglePolicyIPKcE6policyE(%rip)
	call	__cxa_atexit@PLT
	jmp	.L522
	.cfi_endproc
.LFE14094:
	.size	_GLOBAL__sub_I_main, .-_GLOBAL__sub_I_main
	.section	.init_array,"aw"
	.align 8
	.quad	_GLOBAL__sub_I_main
	.section	.rodata
	.align 8
	.type	_ZZN9transform13FastHistogramC4ERKN2cv3MatEE8__func__, @object
	.size	_ZZN9transform13FastHistogramC4ERKN2cv3MatEE8__func__, 14
_ZZN9transform13FastHistogramC4ERKN2cv3MatEE8__func__:
	.string	"FastHistogram"
	.weak	_ZTSN2cv6StringE
	.section	.rodata._ZTSN2cv6StringE,"aG",@progbits,_ZTSN2cv6StringE,comdat
	.align 8
	.type	_ZTSN2cv6StringE, @object
	.size	_ZTSN2cv6StringE, 13
_ZTSN2cv6StringE:
	.string	"N2cv6StringE"
	.weak	_ZTIN2cv6StringE
	.section	.data.rel.ro._ZTIN2cv6StringE,"awG",@progbits,_ZTIN2cv6StringE,comdat
	.align 8
	.type	_ZTIN2cv6StringE, @object
	.size	_ZTIN2cv6StringE, 16
_ZTIN2cv6StringE:
	.quad	_ZTVN10__cxxabiv117__class_type_infoE+16
	.quad	_ZTSN2cv6StringE
	.weak	_ZTSN7cvflann17flann_algorithm_tE
	.section	.rodata._ZTSN7cvflann17flann_algorithm_tE,"aG",@progbits,_ZTSN7cvflann17flann_algorithm_tE,comdat
	.align 16
	.type	_ZTSN7cvflann17flann_algorithm_tE, @object
	.size	_ZTSN7cvflann17flann_algorithm_tE, 30
_ZTSN7cvflann17flann_algorithm_tE:
	.string	"N7cvflann17flann_algorithm_tE"
	.weak	_ZTIN7cvflann17flann_algorithm_tE
	.section	.data.rel.ro._ZTIN7cvflann17flann_algorithm_tE,"awG",@progbits,_ZTIN7cvflann17flann_algorithm_tE,comdat
	.align 8
	.type	_ZTIN7cvflann17flann_algorithm_tE, @object
	.size	_ZTIN7cvflann17flann_algorithm_tE, 16
_ZTIN7cvflann17flann_algorithm_tE:
	.quad	_ZTVN10__cxxabiv116__enum_type_infoE+16
	.quad	_ZTSN7cvflann17flann_algorithm_tE
	.weak	_ZTSN7cvflann20flann_centers_init_tE
	.section	.rodata._ZTSN7cvflann20flann_centers_init_tE,"aG",@progbits,_ZTSN7cvflann20flann_centers_init_tE,comdat
	.align 32
	.type	_ZTSN7cvflann20flann_centers_init_tE, @object
	.size	_ZTSN7cvflann20flann_centers_init_tE, 33
_ZTSN7cvflann20flann_centers_init_tE:
	.string	"N7cvflann20flann_centers_init_tE"
	.weak	_ZTIN7cvflann20flann_centers_init_tE
	.section	.data.rel.ro._ZTIN7cvflann20flann_centers_init_tE,"awG",@progbits,_ZTIN7cvflann20flann_centers_init_tE,comdat
	.align 8
	.type	_ZTIN7cvflann20flann_centers_init_tE, @object
	.size	_ZTIN7cvflann20flann_centers_init_tE, 16
_ZTIN7cvflann20flann_centers_init_tE:
	.quad	_ZTVN10__cxxabiv116__enum_type_infoE+16
	.quad	_ZTSN7cvflann20flann_centers_init_tE
	.weak	_ZGVN7cvflann7anyimpl12SinglePolicyIN2cv6StringEE6policyE
	.section	.bss._ZGVN7cvflann7anyimpl12SinglePolicyIN2cv6StringEE6policyE,"awG",@nobits,_ZGVN7cvflann7anyimpl12SinglePolicyIN2cv6StringEE6policyE,comdat
	.align 8
	.type	_ZGVN7cvflann7anyimpl12SinglePolicyIN2cv6StringEE6policyE, @gnu_unique_object
	.size	_ZGVN7cvflann7anyimpl12SinglePolicyIN2cv6StringEE6policyE, 8
_ZGVN7cvflann7anyimpl12SinglePolicyIN2cv6StringEE6policyE:
	.zero	8
	.weak	_ZGVN7cvflann7anyimpl12SinglePolicyIjE6policyE
	.section	.bss._ZGVN7cvflann7anyimpl12SinglePolicyIjE6policyE,"awG",@nobits,_ZGVN7cvflann7anyimpl12SinglePolicyIjE6policyE,comdat
	.align 8
	.type	_ZGVN7cvflann7anyimpl12SinglePolicyIjE6policyE, @gnu_unique_object
	.size	_ZGVN7cvflann7anyimpl12SinglePolicyIjE6policyE, 8
_ZGVN7cvflann7anyimpl12SinglePolicyIjE6policyE:
	.zero	8
	.weak	_ZGVN7cvflann7anyimpl12SinglePolicyINS_20flann_centers_init_tEE6policyE
	.section	.bss._ZGVN7cvflann7anyimpl12SinglePolicyINS_20flann_centers_init_tEE6policyE,"awG",@nobits,_ZGVN7cvflann7anyimpl12SinglePolicyINS_20flann_centers_init_tEE6policyE,comdat
	.align 8
	.type	_ZGVN7cvflann7anyimpl12SinglePolicyINS_20flann_centers_init_tEE6policyE, @gnu_unique_object
	.size	_ZGVN7cvflann7anyimpl12SinglePolicyINS_20flann_centers_init_tEE6policyE, 8
_ZGVN7cvflann7anyimpl12SinglePolicyINS_20flann_centers_init_tEE6policyE:
	.zero	8
	.weak	_ZGVN7cvflann7anyimpl12SinglePolicyINS_17flann_algorithm_tEE6policyE
	.section	.bss._ZGVN7cvflann7anyimpl12SinglePolicyINS_17flann_algorithm_tEE6policyE,"awG",@nobits,_ZGVN7cvflann7anyimpl12SinglePolicyINS_17flann_algorithm_tEE6policyE,comdat
	.align 8
	.type	_ZGVN7cvflann7anyimpl12SinglePolicyINS_17flann_algorithm_tEE6policyE, @gnu_unique_object
	.size	_ZGVN7cvflann7anyimpl12SinglePolicyINS_17flann_algorithm_tEE6policyE, 8
_ZGVN7cvflann7anyimpl12SinglePolicyINS_17flann_algorithm_tEE6policyE:
	.zero	8
	.weak	_ZGVN7cvflann7anyimpl12SinglePolicyIbE6policyE
	.section	.bss._ZGVN7cvflann7anyimpl12SinglePolicyIbE6policyE,"awG",@nobits,_ZGVN7cvflann7anyimpl12SinglePolicyIbE6policyE,comdat
	.align 8
	.type	_ZGVN7cvflann7anyimpl12SinglePolicyIbE6policyE, @gnu_unique_object
	.size	_ZGVN7cvflann7anyimpl12SinglePolicyIbE6policyE, 8
_ZGVN7cvflann7anyimpl12SinglePolicyIbE6policyE:
	.zero	8
	.weak	_ZGVN7cvflann7anyimpl12SinglePolicyIfE6policyE
	.section	.bss._ZGVN7cvflann7anyimpl12SinglePolicyIfE6policyE,"awG",@nobits,_ZGVN7cvflann7anyimpl12SinglePolicyIfE6policyE,comdat
	.align 8
	.type	_ZGVN7cvflann7anyimpl12SinglePolicyIfE6policyE, @gnu_unique_object
	.size	_ZGVN7cvflann7anyimpl12SinglePolicyIfE6policyE, 8
_ZGVN7cvflann7anyimpl12SinglePolicyIfE6policyE:
	.zero	8
	.weak	_ZGVN7cvflann7anyimpl12SinglePolicyIiE6policyE
	.section	.bss._ZGVN7cvflann7anyimpl12SinglePolicyIiE6policyE,"awG",@nobits,_ZGVN7cvflann7anyimpl12SinglePolicyIiE6policyE,comdat
	.align 8
	.type	_ZGVN7cvflann7anyimpl12SinglePolicyIiE6policyE, @gnu_unique_object
	.size	_ZGVN7cvflann7anyimpl12SinglePolicyIiE6policyE, 8
_ZGVN7cvflann7anyimpl12SinglePolicyIiE6policyE:
	.zero	8
	.weak	_ZGVN7cvflann7anyimpl12SinglePolicyIPKcE6policyE
	.section	.bss._ZGVN7cvflann7anyimpl12SinglePolicyIPKcE6policyE,"awG",@nobits,_ZGVN7cvflann7anyimpl12SinglePolicyIPKcE6policyE,comdat
	.align 8
	.type	_ZGVN7cvflann7anyimpl12SinglePolicyIPKcE6policyE, @gnu_unique_object
	.size	_ZGVN7cvflann7anyimpl12SinglePolicyIPKcE6policyE, 8
_ZGVN7cvflann7anyimpl12SinglePolicyIPKcE6policyE:
	.zero	8
	.weak	_ZGVN7cvflann7anyimpl12SinglePolicyINS0_9empty_anyEE6policyE
	.section	.bss._ZGVN7cvflann7anyimpl12SinglePolicyINS0_9empty_anyEE6policyE,"awG",@nobits,_ZGVN7cvflann7anyimpl12SinglePolicyINS0_9empty_anyEE6policyE,comdat
	.align 8
	.type	_ZGVN7cvflann7anyimpl12SinglePolicyINS0_9empty_anyEE6policyE, @gnu_unique_object
	.size	_ZGVN7cvflann7anyimpl12SinglePolicyINS0_9empty_anyEE6policyE, 8
_ZGVN7cvflann7anyimpl12SinglePolicyINS0_9empty_anyEE6policyE:
	.zero	8
	.weak	_ZN7cvflann7anyimpl12SinglePolicyIN2cv6StringEE6policyE
	.section	.data.rel.local._ZN7cvflann7anyimpl12SinglePolicyIN2cv6StringEE6policyE,"awG",@progbits,_ZN7cvflann7anyimpl12SinglePolicyIN2cv6StringEE6policyE,comdat
	.align 8
	.type	_ZN7cvflann7anyimpl12SinglePolicyIN2cv6StringEE6policyE, @gnu_unique_object
	.size	_ZN7cvflann7anyimpl12SinglePolicyIN2cv6StringEE6policyE, 8
_ZN7cvflann7anyimpl12SinglePolicyIN2cv6StringEE6policyE:
	.quad	_ZTVN7cvflann7anyimpl14big_any_policyIN2cv6StringEEE+16
	.weak	_ZN7cvflann7anyimpl12SinglePolicyIjE6policyE
	.section	.data.rel.local._ZN7cvflann7anyimpl12SinglePolicyIjE6policyE,"awG",@progbits,_ZN7cvflann7anyimpl12SinglePolicyIjE6policyE,comdat
	.align 8
	.type	_ZN7cvflann7anyimpl12SinglePolicyIjE6policyE, @gnu_unique_object
	.size	_ZN7cvflann7anyimpl12SinglePolicyIjE6policyE, 8
_ZN7cvflann7anyimpl12SinglePolicyIjE6policyE:
	.quad	_ZTVN7cvflann7anyimpl16small_any_policyIjEE+16
	.weak	_ZN7cvflann7anyimpl12SinglePolicyINS_20flann_centers_init_tEE6policyE
	.section	.data.rel.local._ZN7cvflann7anyimpl12SinglePolicyINS_20flann_centers_init_tEE6policyE,"awG",@progbits,_ZN7cvflann7anyimpl12SinglePolicyINS_20flann_centers_init_tEE6policyE,comdat
	.align 8
	.type	_ZN7cvflann7anyimpl12SinglePolicyINS_20flann_centers_init_tEE6policyE, @gnu_unique_object
	.size	_ZN7cvflann7anyimpl12SinglePolicyINS_20flann_centers_init_tEE6policyE, 8
_ZN7cvflann7anyimpl12SinglePolicyINS_20flann_centers_init_tEE6policyE:
	.quad	_ZTVN7cvflann7anyimpl14big_any_policyINS_20flann_centers_init_tEEE+16
	.weak	_ZN7cvflann7anyimpl12SinglePolicyINS_17flann_algorithm_tEE6policyE
	.section	.data.rel.local._ZN7cvflann7anyimpl12SinglePolicyINS_17flann_algorithm_tEE6policyE,"awG",@progbits,_ZN7cvflann7anyimpl12SinglePolicyINS_17flann_algorithm_tEE6policyE,comdat
	.align 8
	.type	_ZN7cvflann7anyimpl12SinglePolicyINS_17flann_algorithm_tEE6policyE, @gnu_unique_object
	.size	_ZN7cvflann7anyimpl12SinglePolicyINS_17flann_algorithm_tEE6policyE, 8
_ZN7cvflann7anyimpl12SinglePolicyINS_17flann_algorithm_tEE6policyE:
	.quad	_ZTVN7cvflann7anyimpl14big_any_policyINS_17flann_algorithm_tEEE+16
	.weak	_ZN7cvflann7anyimpl12SinglePolicyIbE6policyE
	.section	.data.rel.local._ZN7cvflann7anyimpl12SinglePolicyIbE6policyE,"awG",@progbits,_ZN7cvflann7anyimpl12SinglePolicyIbE6policyE,comdat
	.align 8
	.type	_ZN7cvflann7anyimpl12SinglePolicyIbE6policyE, @gnu_unique_object
	.size	_ZN7cvflann7anyimpl12SinglePolicyIbE6policyE, 8
_ZN7cvflann7anyimpl12SinglePolicyIbE6policyE:
	.quad	_ZTVN7cvflann7anyimpl16small_any_policyIbEE+16
	.weak	_ZN7cvflann7anyimpl12SinglePolicyIfE6policyE
	.section	.data.rel.local._ZN7cvflann7anyimpl12SinglePolicyIfE6policyE,"awG",@progbits,_ZN7cvflann7anyimpl12SinglePolicyIfE6policyE,comdat
	.align 8
	.type	_ZN7cvflann7anyimpl12SinglePolicyIfE6policyE, @gnu_unique_object
	.size	_ZN7cvflann7anyimpl12SinglePolicyIfE6policyE, 8
_ZN7cvflann7anyimpl12SinglePolicyIfE6policyE:
	.quad	_ZTVN7cvflann7anyimpl16small_any_policyIfEE+16
	.weak	_ZN7cvflann7anyimpl12SinglePolicyIiE6policyE
	.section	.data.rel.local._ZN7cvflann7anyimpl12SinglePolicyIiE6policyE,"awG",@progbits,_ZN7cvflann7anyimpl12SinglePolicyIiE6policyE,comdat
	.align 8
	.type	_ZN7cvflann7anyimpl12SinglePolicyIiE6policyE, @gnu_unique_object
	.size	_ZN7cvflann7anyimpl12SinglePolicyIiE6policyE, 8
_ZN7cvflann7anyimpl12SinglePolicyIiE6policyE:
	.quad	_ZTVN7cvflann7anyimpl16small_any_policyIiEE+16
	.weak	_ZN7cvflann7anyimpl12SinglePolicyIPKcE6policyE
	.section	.data.rel.local._ZN7cvflann7anyimpl12SinglePolicyIPKcE6policyE,"awG",@progbits,_ZN7cvflann7anyimpl12SinglePolicyIPKcE6policyE,comdat
	.align 8
	.type	_ZN7cvflann7anyimpl12SinglePolicyIPKcE6policyE, @gnu_unique_object
	.size	_ZN7cvflann7anyimpl12SinglePolicyIPKcE6policyE, 8
_ZN7cvflann7anyimpl12SinglePolicyIPKcE6policyE:
	.quad	_ZTVN7cvflann7anyimpl16small_any_policyIPKcEE+16
	.weak	_ZN7cvflann7anyimpl12SinglePolicyINS0_9empty_anyEE6policyE
	.section	.data.rel.local._ZN7cvflann7anyimpl12SinglePolicyINS0_9empty_anyEE6policyE,"awG",@progbits,_ZN7cvflann7anyimpl12SinglePolicyINS0_9empty_anyEE6policyE,comdat
	.align 8
	.type	_ZN7cvflann7anyimpl12SinglePolicyINS0_9empty_anyEE6policyE, @gnu_unique_object
	.size	_ZN7cvflann7anyimpl12SinglePolicyINS0_9empty_anyEE6policyE, 8
_ZN7cvflann7anyimpl12SinglePolicyINS0_9empty_anyEE6policyE:
	.quad	_ZTVN7cvflann7anyimpl14big_any_policyINS0_9empty_anyEEE+16
	.weak	_ZTSN7cvflann7anyimpl15base_any_policyE
	.section	.rodata._ZTSN7cvflann7anyimpl15base_any_policyE,"aG",@progbits,_ZTSN7cvflann7anyimpl15base_any_policyE,comdat
	.align 32
	.type	_ZTSN7cvflann7anyimpl15base_any_policyE, @object
	.size	_ZTSN7cvflann7anyimpl15base_any_policyE, 36
_ZTSN7cvflann7anyimpl15base_any_policyE:
	.string	"N7cvflann7anyimpl15base_any_policyE"
	.weak	_ZTIN7cvflann7anyimpl15base_any_policyE
	.section	.data.rel.ro._ZTIN7cvflann7anyimpl15base_any_policyE,"awG",@progbits,_ZTIN7cvflann7anyimpl15base_any_policyE,comdat
	.align 8
	.type	_ZTIN7cvflann7anyimpl15base_any_policyE, @object
	.size	_ZTIN7cvflann7anyimpl15base_any_policyE, 16
_ZTIN7cvflann7anyimpl15base_any_policyE:
	.quad	_ZTVN10__cxxabiv117__class_type_infoE+16
	.quad	_ZTSN7cvflann7anyimpl15base_any_policyE
	.weak	_ZTSN7cvflann7anyimpl21typed_base_any_policyINS_20flann_centers_init_tEEE
	.section	.rodata._ZTSN7cvflann7anyimpl21typed_base_any_policyINS_20flann_centers_init_tEEE,"aG",@progbits,_ZTSN7cvflann7anyimpl21typed_base_any_policyINS_20flann_centers_init_tEEE,comdat
	.align 32
	.type	_ZTSN7cvflann7anyimpl21typed_base_any_policyINS_20flann_centers_init_tEEE, @object
	.size	_ZTSN7cvflann7anyimpl21typed_base_any_policyINS_20flann_centers_init_tEEE, 70
_ZTSN7cvflann7anyimpl21typed_base_any_policyINS_20flann_centers_init_tEEE:
	.string	"N7cvflann7anyimpl21typed_base_any_policyINS_20flann_centers_init_tEEE"
	.weak	_ZTIN7cvflann7anyimpl21typed_base_any_policyINS_20flann_centers_init_tEEE
	.section	.data.rel.ro._ZTIN7cvflann7anyimpl21typed_base_any_policyINS_20flann_centers_init_tEEE,"awG",@progbits,_ZTIN7cvflann7anyimpl21typed_base_any_policyINS_20flann_centers_init_tEEE,comdat
	.align 8
	.type	_ZTIN7cvflann7anyimpl21typed_base_any_policyINS_20flann_centers_init_tEEE, @object
	.size	_ZTIN7cvflann7anyimpl21typed_base_any_policyINS_20flann_centers_init_tEEE, 24
_ZTIN7cvflann7anyimpl21typed_base_any_policyINS_20flann_centers_init_tEEE:
	.quad	_ZTVN10__cxxabiv120__si_class_type_infoE+16
	.quad	_ZTSN7cvflann7anyimpl21typed_base_any_policyINS_20flann_centers_init_tEEE
	.quad	_ZTIN7cvflann7anyimpl15base_any_policyE
	.weak	_ZTSN7cvflann7anyimpl14big_any_policyINS_20flann_centers_init_tEEE
	.section	.rodata._ZTSN7cvflann7anyimpl14big_any_policyINS_20flann_centers_init_tEEE,"aG",@progbits,_ZTSN7cvflann7anyimpl14big_any_policyINS_20flann_centers_init_tEEE,comdat
	.align 32
	.type	_ZTSN7cvflann7anyimpl14big_any_policyINS_20flann_centers_init_tEEE, @object
	.size	_ZTSN7cvflann7anyimpl14big_any_policyINS_20flann_centers_init_tEEE, 63
_ZTSN7cvflann7anyimpl14big_any_policyINS_20flann_centers_init_tEEE:
	.string	"N7cvflann7anyimpl14big_any_policyINS_20flann_centers_init_tEEE"
	.weak	_ZTIN7cvflann7anyimpl14big_any_policyINS_20flann_centers_init_tEEE
	.section	.data.rel.ro._ZTIN7cvflann7anyimpl14big_any_policyINS_20flann_centers_init_tEEE,"awG",@progbits,_ZTIN7cvflann7anyimpl14big_any_policyINS_20flann_centers_init_tEEE,comdat
	.align 8
	.type	_ZTIN7cvflann7anyimpl14big_any_policyINS_20flann_centers_init_tEEE, @object
	.size	_ZTIN7cvflann7anyimpl14big_any_policyINS_20flann_centers_init_tEEE, 24
_ZTIN7cvflann7anyimpl14big_any_policyINS_20flann_centers_init_tEEE:
	.quad	_ZTVN10__cxxabiv120__si_class_type_infoE+16
	.quad	_ZTSN7cvflann7anyimpl14big_any_policyINS_20flann_centers_init_tEEE
	.quad	_ZTIN7cvflann7anyimpl21typed_base_any_policyINS_20flann_centers_init_tEEE
	.weak	_ZTSN7cvflann7anyimpl21typed_base_any_policyINS_17flann_algorithm_tEEE
	.section	.rodata._ZTSN7cvflann7anyimpl21typed_base_any_policyINS_17flann_algorithm_tEEE,"aG",@progbits,_ZTSN7cvflann7anyimpl21typed_base_any_policyINS_17flann_algorithm_tEEE,comdat
	.align 32
	.type	_ZTSN7cvflann7anyimpl21typed_base_any_policyINS_17flann_algorithm_tEEE, @object
	.size	_ZTSN7cvflann7anyimpl21typed_base_any_policyINS_17flann_algorithm_tEEE, 67
_ZTSN7cvflann7anyimpl21typed_base_any_policyINS_17flann_algorithm_tEEE:
	.string	"N7cvflann7anyimpl21typed_base_any_policyINS_17flann_algorithm_tEEE"
	.weak	_ZTIN7cvflann7anyimpl21typed_base_any_policyINS_17flann_algorithm_tEEE
	.section	.data.rel.ro._ZTIN7cvflann7anyimpl21typed_base_any_policyINS_17flann_algorithm_tEEE,"awG",@progbits,_ZTIN7cvflann7anyimpl21typed_base_any_policyINS_17flann_algorithm_tEEE,comdat
	.align 8
	.type	_ZTIN7cvflann7anyimpl21typed_base_any_policyINS_17flann_algorithm_tEEE, @object
	.size	_ZTIN7cvflann7anyimpl21typed_base_any_policyINS_17flann_algorithm_tEEE, 24
_ZTIN7cvflann7anyimpl21typed_base_any_policyINS_17flann_algorithm_tEEE:
	.quad	_ZTVN10__cxxabiv120__si_class_type_infoE+16
	.quad	_ZTSN7cvflann7anyimpl21typed_base_any_policyINS_17flann_algorithm_tEEE
	.quad	_ZTIN7cvflann7anyimpl15base_any_policyE
	.weak	_ZTSN7cvflann7anyimpl14big_any_policyINS_17flann_algorithm_tEEE
	.section	.rodata._ZTSN7cvflann7anyimpl14big_any_policyINS_17flann_algorithm_tEEE,"aG",@progbits,_ZTSN7cvflann7anyimpl14big_any_policyINS_17flann_algorithm_tEEE,comdat
	.align 32
	.type	_ZTSN7cvflann7anyimpl14big_any_policyINS_17flann_algorithm_tEEE, @object
	.size	_ZTSN7cvflann7anyimpl14big_any_policyINS_17flann_algorithm_tEEE, 60
_ZTSN7cvflann7anyimpl14big_any_policyINS_17flann_algorithm_tEEE:
	.string	"N7cvflann7anyimpl14big_any_policyINS_17flann_algorithm_tEEE"
	.weak	_ZTIN7cvflann7anyimpl14big_any_policyINS_17flann_algorithm_tEEE
	.section	.data.rel.ro._ZTIN7cvflann7anyimpl14big_any_policyINS_17flann_algorithm_tEEE,"awG",@progbits,_ZTIN7cvflann7anyimpl14big_any_policyINS_17flann_algorithm_tEEE,comdat
	.align 8
	.type	_ZTIN7cvflann7anyimpl14big_any_policyINS_17flann_algorithm_tEEE, @object
	.size	_ZTIN7cvflann7anyimpl14big_any_policyINS_17flann_algorithm_tEEE, 24
_ZTIN7cvflann7anyimpl14big_any_policyINS_17flann_algorithm_tEEE:
	.quad	_ZTVN10__cxxabiv120__si_class_type_infoE+16
	.quad	_ZTSN7cvflann7anyimpl14big_any_policyINS_17flann_algorithm_tEEE
	.quad	_ZTIN7cvflann7anyimpl21typed_base_any_policyINS_17flann_algorithm_tEEE
	.weak	_ZTSN7cvflann7anyimpl21typed_base_any_policyIN2cv6StringEEE
	.section	.rodata._ZTSN7cvflann7anyimpl21typed_base_any_policyIN2cv6StringEEE,"aG",@progbits,_ZTSN7cvflann7anyimpl21typed_base_any_policyIN2cv6StringEEE,comdat
	.align 32
	.type	_ZTSN7cvflann7anyimpl21typed_base_any_policyIN2cv6StringEEE, @object
	.size	_ZTSN7cvflann7anyimpl21typed_base_any_policyIN2cv6StringEEE, 56
_ZTSN7cvflann7anyimpl21typed_base_any_policyIN2cv6StringEEE:
	.string	"N7cvflann7anyimpl21typed_base_any_policyIN2cv6StringEEE"
	.weak	_ZTIN7cvflann7anyimpl21typed_base_any_policyIN2cv6StringEEE
	.section	.data.rel.ro._ZTIN7cvflann7anyimpl21typed_base_any_policyIN2cv6StringEEE,"awG",@progbits,_ZTIN7cvflann7anyimpl21typed_base_any_policyIN2cv6StringEEE,comdat
	.align 8
	.type	_ZTIN7cvflann7anyimpl21typed_base_any_policyIN2cv6StringEEE, @object
	.size	_ZTIN7cvflann7anyimpl21typed_base_any_policyIN2cv6StringEEE, 24
_ZTIN7cvflann7anyimpl21typed_base_any_policyIN2cv6StringEEE:
	.quad	_ZTVN10__cxxabiv120__si_class_type_infoE+16
	.quad	_ZTSN7cvflann7anyimpl21typed_base_any_policyIN2cv6StringEEE
	.quad	_ZTIN7cvflann7anyimpl15base_any_policyE
	.weak	_ZTSN7cvflann7anyimpl14big_any_policyIN2cv6StringEEE
	.section	.rodata._ZTSN7cvflann7anyimpl14big_any_policyIN2cv6StringEEE,"aG",@progbits,_ZTSN7cvflann7anyimpl14big_any_policyIN2cv6StringEEE,comdat
	.align 32
	.type	_ZTSN7cvflann7anyimpl14big_any_policyIN2cv6StringEEE, @object
	.size	_ZTSN7cvflann7anyimpl14big_any_policyIN2cv6StringEEE, 49
_ZTSN7cvflann7anyimpl14big_any_policyIN2cv6StringEEE:
	.string	"N7cvflann7anyimpl14big_any_policyIN2cv6StringEEE"
	.weak	_ZTIN7cvflann7anyimpl14big_any_policyIN2cv6StringEEE
	.section	.data.rel.ro._ZTIN7cvflann7anyimpl14big_any_policyIN2cv6StringEEE,"awG",@progbits,_ZTIN7cvflann7anyimpl14big_any_policyIN2cv6StringEEE,comdat
	.align 8
	.type	_ZTIN7cvflann7anyimpl14big_any_policyIN2cv6StringEEE, @object
	.size	_ZTIN7cvflann7anyimpl14big_any_policyIN2cv6StringEEE, 24
_ZTIN7cvflann7anyimpl14big_any_policyIN2cv6StringEEE:
	.quad	_ZTVN10__cxxabiv120__si_class_type_infoE+16
	.quad	_ZTSN7cvflann7anyimpl14big_any_policyIN2cv6StringEEE
	.quad	_ZTIN7cvflann7anyimpl21typed_base_any_policyIN2cv6StringEEE
	.weak	_ZTSN7cvflann7anyimpl21typed_base_any_policyINS0_9empty_anyEEE
	.section	.rodata._ZTSN7cvflann7anyimpl21typed_base_any_policyINS0_9empty_anyEEE,"aG",@progbits,_ZTSN7cvflann7anyimpl21typed_base_any_policyINS0_9empty_anyEEE,comdat
	.align 32
	.type	_ZTSN7cvflann7anyimpl21typed_base_any_policyINS0_9empty_anyEEE, @object
	.size	_ZTSN7cvflann7anyimpl21typed_base_any_policyINS0_9empty_anyEEE, 59
_ZTSN7cvflann7anyimpl21typed_base_any_policyINS0_9empty_anyEEE:
	.string	"N7cvflann7anyimpl21typed_base_any_policyINS0_9empty_anyEEE"
	.weak	_ZTIN7cvflann7anyimpl21typed_base_any_policyINS0_9empty_anyEEE
	.section	.data.rel.ro._ZTIN7cvflann7anyimpl21typed_base_any_policyINS0_9empty_anyEEE,"awG",@progbits,_ZTIN7cvflann7anyimpl21typed_base_any_policyINS0_9empty_anyEEE,comdat
	.align 8
	.type	_ZTIN7cvflann7anyimpl21typed_base_any_policyINS0_9empty_anyEEE, @object
	.size	_ZTIN7cvflann7anyimpl21typed_base_any_policyINS0_9empty_anyEEE, 24
_ZTIN7cvflann7anyimpl21typed_base_any_policyINS0_9empty_anyEEE:
	.quad	_ZTVN10__cxxabiv120__si_class_type_infoE+16
	.quad	_ZTSN7cvflann7anyimpl21typed_base_any_policyINS0_9empty_anyEEE
	.quad	_ZTIN7cvflann7anyimpl15base_any_policyE
	.weak	_ZTSN7cvflann7anyimpl14big_any_policyINS0_9empty_anyEEE
	.section	.rodata._ZTSN7cvflann7anyimpl14big_any_policyINS0_9empty_anyEEE,"aG",@progbits,_ZTSN7cvflann7anyimpl14big_any_policyINS0_9empty_anyEEE,comdat
	.align 32
	.type	_ZTSN7cvflann7anyimpl14big_any_policyINS0_9empty_anyEEE, @object
	.size	_ZTSN7cvflann7anyimpl14big_any_policyINS0_9empty_anyEEE, 52
_ZTSN7cvflann7anyimpl14big_any_policyINS0_9empty_anyEEE:
	.string	"N7cvflann7anyimpl14big_any_policyINS0_9empty_anyEEE"
	.weak	_ZTIN7cvflann7anyimpl14big_any_policyINS0_9empty_anyEEE
	.section	.data.rel.ro._ZTIN7cvflann7anyimpl14big_any_policyINS0_9empty_anyEEE,"awG",@progbits,_ZTIN7cvflann7anyimpl14big_any_policyINS0_9empty_anyEEE,comdat
	.align 8
	.type	_ZTIN7cvflann7anyimpl14big_any_policyINS0_9empty_anyEEE, @object
	.size	_ZTIN7cvflann7anyimpl14big_any_policyINS0_9empty_anyEEE, 24
_ZTIN7cvflann7anyimpl14big_any_policyINS0_9empty_anyEEE:
	.quad	_ZTVN10__cxxabiv120__si_class_type_infoE+16
	.quad	_ZTSN7cvflann7anyimpl14big_any_policyINS0_9empty_anyEEE
	.quad	_ZTIN7cvflann7anyimpl21typed_base_any_policyINS0_9empty_anyEEE
	.weak	_ZTSN7cvflann7anyimpl9empty_anyE
	.section	.rodata._ZTSN7cvflann7anyimpl9empty_anyE,"aG",@progbits,_ZTSN7cvflann7anyimpl9empty_anyE,comdat
	.align 16
	.type	_ZTSN7cvflann7anyimpl9empty_anyE, @object
	.size	_ZTSN7cvflann7anyimpl9empty_anyE, 29
_ZTSN7cvflann7anyimpl9empty_anyE:
	.string	"N7cvflann7anyimpl9empty_anyE"
	.weak	_ZTIN7cvflann7anyimpl9empty_anyE
	.section	.data.rel.ro._ZTIN7cvflann7anyimpl9empty_anyE,"awG",@progbits,_ZTIN7cvflann7anyimpl9empty_anyE,comdat
	.align 8
	.type	_ZTIN7cvflann7anyimpl9empty_anyE, @object
	.size	_ZTIN7cvflann7anyimpl9empty_anyE, 16
_ZTIN7cvflann7anyimpl9empty_anyE:
	.quad	_ZTVN10__cxxabiv117__class_type_infoE+16
	.quad	_ZTSN7cvflann7anyimpl9empty_anyE
	.weak	_ZTSN7cvflann7anyimpl21typed_base_any_policyIPKcEE
	.section	.rodata._ZTSN7cvflann7anyimpl21typed_base_any_policyIPKcEE,"aG",@progbits,_ZTSN7cvflann7anyimpl21typed_base_any_policyIPKcEE,comdat
	.align 32
	.type	_ZTSN7cvflann7anyimpl21typed_base_any_policyIPKcEE, @object
	.size	_ZTSN7cvflann7anyimpl21typed_base_any_policyIPKcEE, 47
_ZTSN7cvflann7anyimpl21typed_base_any_policyIPKcEE:
	.string	"N7cvflann7anyimpl21typed_base_any_policyIPKcEE"
	.weak	_ZTIN7cvflann7anyimpl21typed_base_any_policyIPKcEE
	.section	.data.rel.ro._ZTIN7cvflann7anyimpl21typed_base_any_policyIPKcEE,"awG",@progbits,_ZTIN7cvflann7anyimpl21typed_base_any_policyIPKcEE,comdat
	.align 8
	.type	_ZTIN7cvflann7anyimpl21typed_base_any_policyIPKcEE, @object
	.size	_ZTIN7cvflann7anyimpl21typed_base_any_policyIPKcEE, 24
_ZTIN7cvflann7anyimpl21typed_base_any_policyIPKcEE:
	.quad	_ZTVN10__cxxabiv120__si_class_type_infoE+16
	.quad	_ZTSN7cvflann7anyimpl21typed_base_any_policyIPKcEE
	.quad	_ZTIN7cvflann7anyimpl15base_any_policyE
	.weak	_ZTSN7cvflann7anyimpl16small_any_policyIPKcEE
	.section	.rodata._ZTSN7cvflann7anyimpl16small_any_policyIPKcEE,"aG",@progbits,_ZTSN7cvflann7anyimpl16small_any_policyIPKcEE,comdat
	.align 32
	.type	_ZTSN7cvflann7anyimpl16small_any_policyIPKcEE, @object
	.size	_ZTSN7cvflann7anyimpl16small_any_policyIPKcEE, 42
_ZTSN7cvflann7anyimpl16small_any_policyIPKcEE:
	.string	"N7cvflann7anyimpl16small_any_policyIPKcEE"
	.weak	_ZTIN7cvflann7anyimpl16small_any_policyIPKcEE
	.section	.data.rel.ro._ZTIN7cvflann7anyimpl16small_any_policyIPKcEE,"awG",@progbits,_ZTIN7cvflann7anyimpl16small_any_policyIPKcEE,comdat
	.align 8
	.type	_ZTIN7cvflann7anyimpl16small_any_policyIPKcEE, @object
	.size	_ZTIN7cvflann7anyimpl16small_any_policyIPKcEE, 24
_ZTIN7cvflann7anyimpl16small_any_policyIPKcEE:
	.quad	_ZTVN10__cxxabiv120__si_class_type_infoE+16
	.quad	_ZTSN7cvflann7anyimpl16small_any_policyIPKcEE
	.quad	_ZTIN7cvflann7anyimpl21typed_base_any_policyIPKcEE
	.weak	_ZTSN7cvflann7anyimpl21typed_base_any_policyIiEE
	.section	.rodata._ZTSN7cvflann7anyimpl21typed_base_any_policyIiEE,"aG",@progbits,_ZTSN7cvflann7anyimpl21typed_base_any_policyIiEE,comdat
	.align 32
	.type	_ZTSN7cvflann7anyimpl21typed_base_any_policyIiEE, @object
	.size	_ZTSN7cvflann7anyimpl21typed_base_any_policyIiEE, 45
_ZTSN7cvflann7anyimpl21typed_base_any_policyIiEE:
	.string	"N7cvflann7anyimpl21typed_base_any_policyIiEE"
	.weak	_ZTIN7cvflann7anyimpl21typed_base_any_policyIiEE
	.section	.data.rel.ro._ZTIN7cvflann7anyimpl21typed_base_any_policyIiEE,"awG",@progbits,_ZTIN7cvflann7anyimpl21typed_base_any_policyIiEE,comdat
	.align 8
	.type	_ZTIN7cvflann7anyimpl21typed_base_any_policyIiEE, @object
	.size	_ZTIN7cvflann7anyimpl21typed_base_any_policyIiEE, 24
_ZTIN7cvflann7anyimpl21typed_base_any_policyIiEE:
	.quad	_ZTVN10__cxxabiv120__si_class_type_infoE+16
	.quad	_ZTSN7cvflann7anyimpl21typed_base_any_policyIiEE
	.quad	_ZTIN7cvflann7anyimpl15base_any_policyE
	.weak	_ZTSN7cvflann7anyimpl16small_any_policyIiEE
	.section	.rodata._ZTSN7cvflann7anyimpl16small_any_policyIiEE,"aG",@progbits,_ZTSN7cvflann7anyimpl16small_any_policyIiEE,comdat
	.align 32
	.type	_ZTSN7cvflann7anyimpl16small_any_policyIiEE, @object
	.size	_ZTSN7cvflann7anyimpl16small_any_policyIiEE, 40
_ZTSN7cvflann7anyimpl16small_any_policyIiEE:
	.string	"N7cvflann7anyimpl16small_any_policyIiEE"
	.weak	_ZTIN7cvflann7anyimpl16small_any_policyIiEE
	.section	.data.rel.ro._ZTIN7cvflann7anyimpl16small_any_policyIiEE,"awG",@progbits,_ZTIN7cvflann7anyimpl16small_any_policyIiEE,comdat
	.align 8
	.type	_ZTIN7cvflann7anyimpl16small_any_policyIiEE, @object
	.size	_ZTIN7cvflann7anyimpl16small_any_policyIiEE, 24
_ZTIN7cvflann7anyimpl16small_any_policyIiEE:
	.quad	_ZTVN10__cxxabiv120__si_class_type_infoE+16
	.quad	_ZTSN7cvflann7anyimpl16small_any_policyIiEE
	.quad	_ZTIN7cvflann7anyimpl21typed_base_any_policyIiEE
	.weak	_ZTSN7cvflann7anyimpl21typed_base_any_policyIfEE
	.section	.rodata._ZTSN7cvflann7anyimpl21typed_base_any_policyIfEE,"aG",@progbits,_ZTSN7cvflann7anyimpl21typed_base_any_policyIfEE,comdat
	.align 32
	.type	_ZTSN7cvflann7anyimpl21typed_base_any_policyIfEE, @object
	.size	_ZTSN7cvflann7anyimpl21typed_base_any_policyIfEE, 45
_ZTSN7cvflann7anyimpl21typed_base_any_policyIfEE:
	.string	"N7cvflann7anyimpl21typed_base_any_policyIfEE"
	.weak	_ZTIN7cvflann7anyimpl21typed_base_any_policyIfEE
	.section	.data.rel.ro._ZTIN7cvflann7anyimpl21typed_base_any_policyIfEE,"awG",@progbits,_ZTIN7cvflann7anyimpl21typed_base_any_policyIfEE,comdat
	.align 8
	.type	_ZTIN7cvflann7anyimpl21typed_base_any_policyIfEE, @object
	.size	_ZTIN7cvflann7anyimpl21typed_base_any_policyIfEE, 24
_ZTIN7cvflann7anyimpl21typed_base_any_policyIfEE:
	.quad	_ZTVN10__cxxabiv120__si_class_type_infoE+16
	.quad	_ZTSN7cvflann7anyimpl21typed_base_any_policyIfEE
	.quad	_ZTIN7cvflann7anyimpl15base_any_policyE
	.weak	_ZTSN7cvflann7anyimpl16small_any_policyIfEE
	.section	.rodata._ZTSN7cvflann7anyimpl16small_any_policyIfEE,"aG",@progbits,_ZTSN7cvflann7anyimpl16small_any_policyIfEE,comdat
	.align 32
	.type	_ZTSN7cvflann7anyimpl16small_any_policyIfEE, @object
	.size	_ZTSN7cvflann7anyimpl16small_any_policyIfEE, 40
_ZTSN7cvflann7anyimpl16small_any_policyIfEE:
	.string	"N7cvflann7anyimpl16small_any_policyIfEE"
	.weak	_ZTIN7cvflann7anyimpl16small_any_policyIfEE
	.section	.data.rel.ro._ZTIN7cvflann7anyimpl16small_any_policyIfEE,"awG",@progbits,_ZTIN7cvflann7anyimpl16small_any_policyIfEE,comdat
	.align 8
	.type	_ZTIN7cvflann7anyimpl16small_any_policyIfEE, @object
	.size	_ZTIN7cvflann7anyimpl16small_any_policyIfEE, 24
_ZTIN7cvflann7anyimpl16small_any_policyIfEE:
	.quad	_ZTVN10__cxxabiv120__si_class_type_infoE+16
	.quad	_ZTSN7cvflann7anyimpl16small_any_policyIfEE
	.quad	_ZTIN7cvflann7anyimpl21typed_base_any_policyIfEE
	.weak	_ZTSN7cvflann7anyimpl21typed_base_any_policyIbEE
	.section	.rodata._ZTSN7cvflann7anyimpl21typed_base_any_policyIbEE,"aG",@progbits,_ZTSN7cvflann7anyimpl21typed_base_any_policyIbEE,comdat
	.align 32
	.type	_ZTSN7cvflann7anyimpl21typed_base_any_policyIbEE, @object
	.size	_ZTSN7cvflann7anyimpl21typed_base_any_policyIbEE, 45
_ZTSN7cvflann7anyimpl21typed_base_any_policyIbEE:
	.string	"N7cvflann7anyimpl21typed_base_any_policyIbEE"
	.weak	_ZTIN7cvflann7anyimpl21typed_base_any_policyIbEE
	.section	.data.rel.ro._ZTIN7cvflann7anyimpl21typed_base_any_policyIbEE,"awG",@progbits,_ZTIN7cvflann7anyimpl21typed_base_any_policyIbEE,comdat
	.align 8
	.type	_ZTIN7cvflann7anyimpl21typed_base_any_policyIbEE, @object
	.size	_ZTIN7cvflann7anyimpl21typed_base_any_policyIbEE, 24
_ZTIN7cvflann7anyimpl21typed_base_any_policyIbEE:
	.quad	_ZTVN10__cxxabiv120__si_class_type_infoE+16
	.quad	_ZTSN7cvflann7anyimpl21typed_base_any_policyIbEE
	.quad	_ZTIN7cvflann7anyimpl15base_any_policyE
	.weak	_ZTSN7cvflann7anyimpl16small_any_policyIbEE
	.section	.rodata._ZTSN7cvflann7anyimpl16small_any_policyIbEE,"aG",@progbits,_ZTSN7cvflann7anyimpl16small_any_policyIbEE,comdat
	.align 32
	.type	_ZTSN7cvflann7anyimpl16small_any_policyIbEE, @object
	.size	_ZTSN7cvflann7anyimpl16small_any_policyIbEE, 40
_ZTSN7cvflann7anyimpl16small_any_policyIbEE:
	.string	"N7cvflann7anyimpl16small_any_policyIbEE"
	.weak	_ZTIN7cvflann7anyimpl16small_any_policyIbEE
	.section	.data.rel.ro._ZTIN7cvflann7anyimpl16small_any_policyIbEE,"awG",@progbits,_ZTIN7cvflann7anyimpl16small_any_policyIbEE,comdat
	.align 8
	.type	_ZTIN7cvflann7anyimpl16small_any_policyIbEE, @object
	.size	_ZTIN7cvflann7anyimpl16small_any_policyIbEE, 24
_ZTIN7cvflann7anyimpl16small_any_policyIbEE:
	.quad	_ZTVN10__cxxabiv120__si_class_type_infoE+16
	.quad	_ZTSN7cvflann7anyimpl16small_any_policyIbEE
	.quad	_ZTIN7cvflann7anyimpl21typed_base_any_policyIbEE
	.weak	_ZTSN7cvflann7anyimpl21typed_base_any_policyIjEE
	.section	.rodata._ZTSN7cvflann7anyimpl21typed_base_any_policyIjEE,"aG",@progbits,_ZTSN7cvflann7anyimpl21typed_base_any_policyIjEE,comdat
	.align 32
	.type	_ZTSN7cvflann7anyimpl21typed_base_any_policyIjEE, @object
	.size	_ZTSN7cvflann7anyimpl21typed_base_any_policyIjEE, 45
_ZTSN7cvflann7anyimpl21typed_base_any_policyIjEE:
	.string	"N7cvflann7anyimpl21typed_base_any_policyIjEE"
	.weak	_ZTIN7cvflann7anyimpl21typed_base_any_policyIjEE
	.section	.data.rel.ro._ZTIN7cvflann7anyimpl21typed_base_any_policyIjEE,"awG",@progbits,_ZTIN7cvflann7anyimpl21typed_base_any_policyIjEE,comdat
	.align 8
	.type	_ZTIN7cvflann7anyimpl21typed_base_any_policyIjEE, @object
	.size	_ZTIN7cvflann7anyimpl21typed_base_any_policyIjEE, 24
_ZTIN7cvflann7anyimpl21typed_base_any_policyIjEE:
	.quad	_ZTVN10__cxxabiv120__si_class_type_infoE+16
	.quad	_ZTSN7cvflann7anyimpl21typed_base_any_policyIjEE
	.quad	_ZTIN7cvflann7anyimpl15base_any_policyE
	.weak	_ZTSN7cvflann7anyimpl16small_any_policyIjEE
	.section	.rodata._ZTSN7cvflann7anyimpl16small_any_policyIjEE,"aG",@progbits,_ZTSN7cvflann7anyimpl16small_any_policyIjEE,comdat
	.align 32
	.type	_ZTSN7cvflann7anyimpl16small_any_policyIjEE, @object
	.size	_ZTSN7cvflann7anyimpl16small_any_policyIjEE, 40
_ZTSN7cvflann7anyimpl16small_any_policyIjEE:
	.string	"N7cvflann7anyimpl16small_any_policyIjEE"
	.weak	_ZTIN7cvflann7anyimpl16small_any_policyIjEE
	.section	.data.rel.ro._ZTIN7cvflann7anyimpl16small_any_policyIjEE,"awG",@progbits,_ZTIN7cvflann7anyimpl16small_any_policyIjEE,comdat
	.align 8
	.type	_ZTIN7cvflann7anyimpl16small_any_policyIjEE, @object
	.size	_ZTIN7cvflann7anyimpl16small_any_policyIjEE, 24
_ZTIN7cvflann7anyimpl16small_any_policyIjEE:
	.quad	_ZTVN10__cxxabiv120__si_class_type_infoE+16
	.quad	_ZTSN7cvflann7anyimpl16small_any_policyIjEE
	.quad	_ZTIN7cvflann7anyimpl21typed_base_any_policyIjEE
	.weak	_ZTVN7cvflann7anyimpl14big_any_policyINS_20flann_centers_init_tEEE
	.section	.data.rel.ro.local._ZTVN7cvflann7anyimpl14big_any_policyINS_20flann_centers_init_tEEE,"awG",@progbits,_ZTVN7cvflann7anyimpl14big_any_policyINS_20flann_centers_init_tEEE,comdat
	.align 8
	.type	_ZTVN7cvflann7anyimpl14big_any_policyINS_20flann_centers_init_tEEE, @object
	.size	_ZTVN7cvflann7anyimpl14big_any_policyINS_20flann_centers_init_tEEE, 104
_ZTVN7cvflann7anyimpl14big_any_policyINS_20flann_centers_init_tEEE:
	.quad	0
	.quad	_ZTIN7cvflann7anyimpl14big_any_policyINS_20flann_centers_init_tEEE
	.quad	_ZN7cvflann7anyimpl14big_any_policyINS_20flann_centers_init_tEE13static_deleteEPPv
	.quad	_ZN7cvflann7anyimpl14big_any_policyINS_20flann_centers_init_tEE15copy_from_valueEPKvPPv
	.quad	_ZN7cvflann7anyimpl14big_any_policyINS_20flann_centers_init_tEE5cloneEPKPvPS4_
	.quad	_ZN7cvflann7anyimpl14big_any_policyINS_20flann_centers_init_tEE4moveEPKPvPS4_
	.quad	_ZN7cvflann7anyimpl14big_any_policyINS_20flann_centers_init_tEE9get_valueEPPv
	.quad	_ZN7cvflann7anyimpl14big_any_policyINS_20flann_centers_init_tEE9get_valueEPKPv
	.quad	_ZN7cvflann7anyimpl21typed_base_any_policyINS_20flann_centers_init_tEE8get_sizeEv
	.quad	_ZN7cvflann7anyimpl21typed_base_any_policyINS_20flann_centers_init_tEE4typeEv
	.quad	_ZN7cvflann7anyimpl14big_any_policyINS_20flann_centers_init_tEE5printERSoPKPv
	.quad	_ZN7cvflann7anyimpl14big_any_policyINS_20flann_centers_init_tEED1Ev
	.quad	_ZN7cvflann7anyimpl14big_any_policyINS_20flann_centers_init_tEED0Ev
	.weak	_ZTVN7cvflann7anyimpl14big_any_policyINS_17flann_algorithm_tEEE
	.section	.data.rel.ro.local._ZTVN7cvflann7anyimpl14big_any_policyINS_17flann_algorithm_tEEE,"awG",@progbits,_ZTVN7cvflann7anyimpl14big_any_policyINS_17flann_algorithm_tEEE,comdat
	.align 8
	.type	_ZTVN7cvflann7anyimpl14big_any_policyINS_17flann_algorithm_tEEE, @object
	.size	_ZTVN7cvflann7anyimpl14big_any_policyINS_17flann_algorithm_tEEE, 104
_ZTVN7cvflann7anyimpl14big_any_policyINS_17flann_algorithm_tEEE:
	.quad	0
	.quad	_ZTIN7cvflann7anyimpl14big_any_policyINS_17flann_algorithm_tEEE
	.quad	_ZN7cvflann7anyimpl14big_any_policyINS_17flann_algorithm_tEE13static_deleteEPPv
	.quad	_ZN7cvflann7anyimpl14big_any_policyINS_17flann_algorithm_tEE15copy_from_valueEPKvPPv
	.quad	_ZN7cvflann7anyimpl14big_any_policyINS_17flann_algorithm_tEE5cloneEPKPvPS4_
	.quad	_ZN7cvflann7anyimpl14big_any_policyINS_17flann_algorithm_tEE4moveEPKPvPS4_
	.quad	_ZN7cvflann7anyimpl14big_any_policyINS_17flann_algorithm_tEE9get_valueEPPv
	.quad	_ZN7cvflann7anyimpl14big_any_policyINS_17flann_algorithm_tEE9get_valueEPKPv
	.quad	_ZN7cvflann7anyimpl21typed_base_any_policyINS_17flann_algorithm_tEE8get_sizeEv
	.quad	_ZN7cvflann7anyimpl21typed_base_any_policyINS_17flann_algorithm_tEE4typeEv
	.quad	_ZN7cvflann7anyimpl14big_any_policyINS_17flann_algorithm_tEE5printERSoPKPv
	.quad	_ZN7cvflann7anyimpl14big_any_policyINS_17flann_algorithm_tEED1Ev
	.quad	_ZN7cvflann7anyimpl14big_any_policyINS_17flann_algorithm_tEED0Ev
	.weak	_ZTVN7cvflann7anyimpl14big_any_policyIN2cv6StringEEE
	.section	.data.rel.ro.local._ZTVN7cvflann7anyimpl14big_any_policyIN2cv6StringEEE,"awG",@progbits,_ZTVN7cvflann7anyimpl14big_any_policyIN2cv6StringEEE,comdat
	.align 8
	.type	_ZTVN7cvflann7anyimpl14big_any_policyIN2cv6StringEEE, @object
	.size	_ZTVN7cvflann7anyimpl14big_any_policyIN2cv6StringEEE, 104
_ZTVN7cvflann7anyimpl14big_any_policyIN2cv6StringEEE:
	.quad	0
	.quad	_ZTIN7cvflann7anyimpl14big_any_policyIN2cv6StringEEE
	.quad	_ZN7cvflann7anyimpl14big_any_policyIN2cv6StringEE13static_deleteEPPv
	.quad	_ZN7cvflann7anyimpl14big_any_policyIN2cv6StringEE15copy_from_valueEPKvPPv
	.quad	_ZN7cvflann7anyimpl14big_any_policyIN2cv6StringEE5cloneEPKPvPS5_
	.quad	_ZN7cvflann7anyimpl14big_any_policyIN2cv6StringEE4moveEPKPvPS5_
	.quad	_ZN7cvflann7anyimpl14big_any_policyIN2cv6StringEE9get_valueEPPv
	.quad	_ZN7cvflann7anyimpl14big_any_policyIN2cv6StringEE9get_valueEPKPv
	.quad	_ZN7cvflann7anyimpl21typed_base_any_policyIN2cv6StringEE8get_sizeEv
	.quad	_ZN7cvflann7anyimpl21typed_base_any_policyIN2cv6StringEE4typeEv
	.quad	_ZN7cvflann7anyimpl14big_any_policyIN2cv6StringEE5printERSoPKPv
	.quad	_ZN7cvflann7anyimpl14big_any_policyIN2cv6StringEED1Ev
	.quad	_ZN7cvflann7anyimpl14big_any_policyIN2cv6StringEED0Ev
	.weak	_ZTVN7cvflann7anyimpl14big_any_policyINS0_9empty_anyEEE
	.section	.data.rel.ro.local._ZTVN7cvflann7anyimpl14big_any_policyINS0_9empty_anyEEE,"awG",@progbits,_ZTVN7cvflann7anyimpl14big_any_policyINS0_9empty_anyEEE,comdat
	.align 8
	.type	_ZTVN7cvflann7anyimpl14big_any_policyINS0_9empty_anyEEE, @object
	.size	_ZTVN7cvflann7anyimpl14big_any_policyINS0_9empty_anyEEE, 104
_ZTVN7cvflann7anyimpl14big_any_policyINS0_9empty_anyEEE:
	.quad	0
	.quad	_ZTIN7cvflann7anyimpl14big_any_policyINS0_9empty_anyEEE
	.quad	_ZN7cvflann7anyimpl14big_any_policyINS0_9empty_anyEE13static_deleteEPPv
	.quad	_ZN7cvflann7anyimpl14big_any_policyINS0_9empty_anyEE15copy_from_valueEPKvPPv
	.quad	_ZN7cvflann7anyimpl14big_any_policyINS0_9empty_anyEE5cloneEPKPvPS4_
	.quad	_ZN7cvflann7anyimpl14big_any_policyINS0_9empty_anyEE4moveEPKPvPS4_
	.quad	_ZN7cvflann7anyimpl14big_any_policyINS0_9empty_anyEE9get_valueEPPv
	.quad	_ZN7cvflann7anyimpl14big_any_policyINS0_9empty_anyEE9get_valueEPKPv
	.quad	_ZN7cvflann7anyimpl21typed_base_any_policyINS0_9empty_anyEE8get_sizeEv
	.quad	_ZN7cvflann7anyimpl21typed_base_any_policyINS0_9empty_anyEE4typeEv
	.quad	_ZN7cvflann7anyimpl14big_any_policyINS0_9empty_anyEE5printERSoPKPv
	.quad	_ZN7cvflann7anyimpl14big_any_policyINS0_9empty_anyEED1Ev
	.quad	_ZN7cvflann7anyimpl14big_any_policyINS0_9empty_anyEED0Ev
	.weak	_ZTVN7cvflann7anyimpl16small_any_policyIPKcEE
	.section	.data.rel.ro.local._ZTVN7cvflann7anyimpl16small_any_policyIPKcEE,"awG",@progbits,_ZTVN7cvflann7anyimpl16small_any_policyIPKcEE,comdat
	.align 8
	.type	_ZTVN7cvflann7anyimpl16small_any_policyIPKcEE, @object
	.size	_ZTVN7cvflann7anyimpl16small_any_policyIPKcEE, 104
_ZTVN7cvflann7anyimpl16small_any_policyIPKcEE:
	.quad	0
	.quad	_ZTIN7cvflann7anyimpl16small_any_policyIPKcEE
	.quad	_ZN7cvflann7anyimpl16small_any_policyIPKcE13static_deleteEPPv
	.quad	_ZN7cvflann7anyimpl16small_any_policyIPKcE15copy_from_valueEPKvPPv
	.quad	_ZN7cvflann7anyimpl16small_any_policyIPKcE5cloneEPKPvPS5_
	.quad	_ZN7cvflann7anyimpl16small_any_policyIPKcE4moveEPKPvPS5_
	.quad	_ZN7cvflann7anyimpl16small_any_policyIPKcE9get_valueEPPv
	.quad	_ZN7cvflann7anyimpl16small_any_policyIPKcE9get_valueEPKPv
	.quad	_ZN7cvflann7anyimpl21typed_base_any_policyIPKcE8get_sizeEv
	.quad	_ZN7cvflann7anyimpl21typed_base_any_policyIPKcE4typeEv
	.quad	_ZN7cvflann7anyimpl16small_any_policyIPKcE5printERSoPKPv
	.quad	_ZN7cvflann7anyimpl16small_any_policyIPKcED1Ev
	.quad	_ZN7cvflann7anyimpl16small_any_policyIPKcED0Ev
	.weak	_ZTVN7cvflann7anyimpl16small_any_policyIiEE
	.section	.data.rel.ro.local._ZTVN7cvflann7anyimpl16small_any_policyIiEE,"awG",@progbits,_ZTVN7cvflann7anyimpl16small_any_policyIiEE,comdat
	.align 8
	.type	_ZTVN7cvflann7anyimpl16small_any_policyIiEE, @object
	.size	_ZTVN7cvflann7anyimpl16small_any_policyIiEE, 104
_ZTVN7cvflann7anyimpl16small_any_policyIiEE:
	.quad	0
	.quad	_ZTIN7cvflann7anyimpl16small_any_policyIiEE
	.quad	_ZN7cvflann7anyimpl16small_any_policyIiE13static_deleteEPPv
	.quad	_ZN7cvflann7anyimpl16small_any_policyIiE15copy_from_valueEPKvPPv
	.quad	_ZN7cvflann7anyimpl16small_any_policyIiE5cloneEPKPvPS3_
	.quad	_ZN7cvflann7anyimpl16small_any_policyIiE4moveEPKPvPS3_
	.quad	_ZN7cvflann7anyimpl16small_any_policyIiE9get_valueEPPv
	.quad	_ZN7cvflann7anyimpl16small_any_policyIiE9get_valueEPKPv
	.quad	_ZN7cvflann7anyimpl21typed_base_any_policyIiE8get_sizeEv
	.quad	_ZN7cvflann7anyimpl21typed_base_any_policyIiE4typeEv
	.quad	_ZN7cvflann7anyimpl16small_any_policyIiE5printERSoPKPv
	.quad	_ZN7cvflann7anyimpl16small_any_policyIiED1Ev
	.quad	_ZN7cvflann7anyimpl16small_any_policyIiED0Ev
	.weak	_ZTVN7cvflann7anyimpl16small_any_policyIfEE
	.section	.data.rel.ro.local._ZTVN7cvflann7anyimpl16small_any_policyIfEE,"awG",@progbits,_ZTVN7cvflann7anyimpl16small_any_policyIfEE,comdat
	.align 8
	.type	_ZTVN7cvflann7anyimpl16small_any_policyIfEE, @object
	.size	_ZTVN7cvflann7anyimpl16small_any_policyIfEE, 104
_ZTVN7cvflann7anyimpl16small_any_policyIfEE:
	.quad	0
	.quad	_ZTIN7cvflann7anyimpl16small_any_policyIfEE
	.quad	_ZN7cvflann7anyimpl16small_any_policyIfE13static_deleteEPPv
	.quad	_ZN7cvflann7anyimpl16small_any_policyIfE15copy_from_valueEPKvPPv
	.quad	_ZN7cvflann7anyimpl16small_any_policyIfE5cloneEPKPvPS3_
	.quad	_ZN7cvflann7anyimpl16small_any_policyIfE4moveEPKPvPS3_
	.quad	_ZN7cvflann7anyimpl16small_any_policyIfE9get_valueEPPv
	.quad	_ZN7cvflann7anyimpl16small_any_policyIfE9get_valueEPKPv
	.quad	_ZN7cvflann7anyimpl21typed_base_any_policyIfE8get_sizeEv
	.quad	_ZN7cvflann7anyimpl21typed_base_any_policyIfE4typeEv
	.quad	_ZN7cvflann7anyimpl16small_any_policyIfE5printERSoPKPv
	.quad	_ZN7cvflann7anyimpl16small_any_policyIfED1Ev
	.quad	_ZN7cvflann7anyimpl16small_any_policyIfED0Ev
	.weak	_ZTVN7cvflann7anyimpl16small_any_policyIbEE
	.section	.data.rel.ro.local._ZTVN7cvflann7anyimpl16small_any_policyIbEE,"awG",@progbits,_ZTVN7cvflann7anyimpl16small_any_policyIbEE,comdat
	.align 8
	.type	_ZTVN7cvflann7anyimpl16small_any_policyIbEE, @object
	.size	_ZTVN7cvflann7anyimpl16small_any_policyIbEE, 104
_ZTVN7cvflann7anyimpl16small_any_policyIbEE:
	.quad	0
	.quad	_ZTIN7cvflann7anyimpl16small_any_policyIbEE
	.quad	_ZN7cvflann7anyimpl16small_any_policyIbE13static_deleteEPPv
	.quad	_ZN7cvflann7anyimpl16small_any_policyIbE15copy_from_valueEPKvPPv
	.quad	_ZN7cvflann7anyimpl16small_any_policyIbE5cloneEPKPvPS3_
	.quad	_ZN7cvflann7anyimpl16small_any_policyIbE4moveEPKPvPS3_
	.quad	_ZN7cvflann7anyimpl16small_any_policyIbE9get_valueEPPv
	.quad	_ZN7cvflann7anyimpl16small_any_policyIbE9get_valueEPKPv
	.quad	_ZN7cvflann7anyimpl21typed_base_any_policyIbE8get_sizeEv
	.quad	_ZN7cvflann7anyimpl21typed_base_any_policyIbE4typeEv
	.quad	_ZN7cvflann7anyimpl16small_any_policyIbE5printERSoPKPv
	.quad	_ZN7cvflann7anyimpl16small_any_policyIbED1Ev
	.quad	_ZN7cvflann7anyimpl16small_any_policyIbED0Ev
	.weak	_ZTVN7cvflann7anyimpl16small_any_policyIjEE
	.section	.data.rel.ro.local._ZTVN7cvflann7anyimpl16small_any_policyIjEE,"awG",@progbits,_ZTVN7cvflann7anyimpl16small_any_policyIjEE,comdat
	.align 8
	.type	_ZTVN7cvflann7anyimpl16small_any_policyIjEE, @object
	.size	_ZTVN7cvflann7anyimpl16small_any_policyIjEE, 104
_ZTVN7cvflann7anyimpl16small_any_policyIjEE:
	.quad	0
	.quad	_ZTIN7cvflann7anyimpl16small_any_policyIjEE
	.quad	_ZN7cvflann7anyimpl16small_any_policyIjE13static_deleteEPPv
	.quad	_ZN7cvflann7anyimpl16small_any_policyIjE15copy_from_valueEPKvPPv
	.quad	_ZN7cvflann7anyimpl16small_any_policyIjE5cloneEPKPvPS3_
	.quad	_ZN7cvflann7anyimpl16small_any_policyIjE4moveEPKPvPS3_
	.quad	_ZN7cvflann7anyimpl16small_any_policyIjE9get_valueEPPv
	.quad	_ZN7cvflann7anyimpl16small_any_policyIjE9get_valueEPKPv
	.quad	_ZN7cvflann7anyimpl21typed_base_any_policyIjE8get_sizeEv
	.quad	_ZN7cvflann7anyimpl21typed_base_any_policyIjE4typeEv
	.quad	_ZN7cvflann7anyimpl16small_any_policyIjE5printERSoPKPv
	.quad	_ZN7cvflann7anyimpl16small_any_policyIjED1Ev
	.quad	_ZN7cvflann7anyimpl16small_any_policyIjED0Ev
	.local	_ZStL8__ioinit
	.comm	_ZStL8__ioinit,1,1
	.section	.rodata.cst16,"aM",@progbits,16
	.align 16
.LC5:
	.quad	7521906815699873129
	.quad	2965747264018869857
	.align 16
.LC6:
	.quad	8751670988948729193
	.quad	2323080191131805040
	.hidden	DW.ref.__gxx_personality_v0
	.weak	DW.ref.__gxx_personality_v0
	.section	.data.rel.local.DW.ref.__gxx_personality_v0,"awG",@progbits,DW.ref.__gxx_personality_v0,comdat
	.align 8
	.type	DW.ref.__gxx_personality_v0, @object
	.size	DW.ref.__gxx_personality_v0, 8
DW.ref.__gxx_personality_v0:
	.quad	__gxx_personality_v0
	.hidden	__dso_handle
	.ident	"GCC: (GNU) 8.2.1 20180831"
	.section	.note.GNU-stack,"",@progbits
